

Microchip MPLAB XC8 Assembler V3.00 build 20241204225717 
                                                                                               Tue May 27 21:04:34 2025

Microchip MPLAB XC8 C Compiler v3.00 (Free license) build 20241204225717 Og1 
     1                           	processor	16F877A
     2                           	pagewidth 120
     3                           	opt	flic
     4                           	psect	cinit,global,class=CODE,space=0,merge=1,delta=2
     5                           	psect	bssBANK0,global,class=BANK0,space=1,delta=1,noexec
     6                           	psect	bssBANK1,global,class=BANK1,space=1,delta=1,noexec
     7                           	psect	cstackBANK1,global,class=BANK1,space=1,delta=1,noexec
     8                           	psect	cstackCOMMON,global,class=COMMON,space=1,delta=1,noexec
     9                           	psect	cstackBANK0,global,class=BANK0,space=1,delta=1,noexec
    10                           	psect	maintext,global,class=CODE,space=0,split=1,delta=2
    11                           	psect	text1,local,class=CODE,space=0,merge=1,delta=2
    12                           	psect	text2,local,class=CODE,space=0,merge=1,delta=2
    13                           	psect	text3,local,class=CODE,space=0,merge=1,delta=2
    14                           	psect	text4,local,class=CODE,space=0,merge=1,delta=2
    15                           	psect	text5,local,class=CODE,space=0,merge=1,delta=2
    16                           	psect	text6,local,class=CODE,space=0,merge=1,delta=2,group=1
    17                           	psect	text7,local,class=CODE,space=0,merge=1,delta=2,group=1
    18                           	psect	text8,local,class=CODE,space=0,merge=1,delta=2,group=1
    19                           	psect	text9,local,class=CODE,space=0,merge=1,delta=2
    20                           	psect	text10,local,class=CODE,space=0,merge=1,delta=2,group=1
    21                           	psect	text11,local,class=CODE,space=0,merge=1,delta=2
    22                           	psect	text12,local,class=CODE,space=0,merge=1,delta=2
    23                           	psect	text13,local,class=CODE,space=0,merge=1,delta=2
    24                           	psect	text14,local,class=CODE,space=0,merge=1,delta=2,group=1
    25                           	psect	text15,local,class=CODE,space=0,merge=1,delta=2,group=1
    26                           	psect	text16,local,class=CODE,space=0,merge=1,delta=2,group=1
    27                           	psect	text17,local,class=CODE,space=0,merge=1,delta=2
    28                           	psect	text18,local,class=CODE,space=0,merge=1,delta=2
    29                           	psect	text19,local,class=CODE,space=0,merge=1,delta=2
    30                           	psect	text20,local,class=CODE,space=0,merge=1,delta=2
    31                           	psect	text21,local,class=CODE,space=0,merge=1,delta=2
    32                           	psect	intentry,global,class=CODE,space=0,delta=2
    33                           	psect	text22,local,class=CODE,space=0,merge=1,delta=2
    34                           	psect	text23,local,class=CODE,space=0,merge=1,delta=2
    35                           	psect	text24,local,class=CODE,space=0,merge=1,delta=2
    36                           	psect	text25,local,class=CODE,space=0,merge=1,delta=2
    37                           	psect	text26,local,class=CODE,space=0,merge=1,delta=2
    38                           	psect	text27,local,class=CODE,space=0,merge=1,delta=2
    39                           	psect	text28,local,class=CODE,space=0,merge=1,delta=2
    40                           	psect	text29,local,class=CODE,space=0,merge=1,delta=2
    41                           	psect	text30,local,class=CODE,space=0,merge=1,delta=2
    42                           	psect	text31,local,class=CODE,space=0,merge=1,delta=2
    43                           	psect	text32,local,class=CODE,space=0,merge=1,delta=2
    44                           	psect	text33,local,class=CODE,space=0,merge=1,delta=2
    45                           	psect	text34,local,class=CODE,space=0,merge=1,delta=2
    46                           	psect	text35,local,class=CODE,space=0,merge=1,delta=2,group=1
    47                           	psect	text36,local,class=CODE,space=0,merge=1,delta=2
    48                           	psect	config,global,abs,ovrld,class=CONFIG,space=4,delta=2,noexec
    49                           	dabs	1,0x7E,2
    50     0000                     
    51                           ; Generated 12/10/2023 GMT
    52                           ; 
    53                           ; Copyright © 2023, Microchip Technology Inc. and its subsidiaries ("Microchip")
    54                           ; All rights reserved.
    55                           ; 
    56                           ; This software is developed by Microchip Technology Inc. and its subsidiaries ("Microch
      +                          ip").
    57                           ; 
    58                           ; Redistribution and use in source and binary forms, with or without modification, are
    59                           ; permitted provided that the following conditions are met:
    60                           ; 
    61                           ;     1. Redistributions of source code must retain the above copyright notice, this lis
      +                          t of
    62                           ;        conditions and the following disclaimer.
    63                           ; 
    64                           ;     2. Redistributions in binary form must reproduce the above copyright notice, this 
      +                          list
    65                           ;        of conditions and the following disclaimer in the documentation and/or other
    66                           ;        materials provided with the distribution. Publication is not required when
    67                           ;        this file is used in an embedded application.
    68                           ; 
    69                           ;     3. Microchip's name may not be used to endorse or promote products derived from th
      +                          is
    70                           ;        software without specific prior written permission.
    71                           ; 
    72                           ; THIS SOFTWARE IS PROVIDED BY MICROCHIP "AS IS" AND ANY EXPRESS OR IMPLIED WARRANTIES,
    73                           ; INCLUDING, BUT NOT LIMITED TO, THE IMPLIED WARRANTIES OF MERCHANTABILITY AND FITNESS F
      +                          OR
    74                           ; PURPOSE ARE DISCLAIMED.  IN NO EVENT SHALL MICROCHIP BE LIABLE FOR ANY DIRECT, INDIREC
      +                          T,
    75                           ; INCIDENTAL, SPECIAL, EXEMPLARY, OR CONSEQUENTIAL DAMAGES (INCLUDING BUT NOT LIMITED TO
    76                           ; PROCUREMENT OF SUBSTITUTE GOODS OR SERVICES; LOSS OF USE, DATA OR PROFITS; OR BUSINESS
    77                           ; INTERRUPTION) HOWSOEVER CAUSED AND ON ANY THEORY OF LIABILITY, WHETHER IN CONTRACT, ST
      +                          RICT
    78                           ; LIABILITY, OR TORT (INCLUDING NEGLIGENCE OR OTHERWISE) ARISING IN ANY WAY OUT OF THE U
      +                          SE OF
    79                           ; THIS SOFTWARE, EVEN IF ADVISED OF THE POSSIBILITY OF SUCH DAMAGE.
    80                           ; 
    81                           ; 
    82                           ; Code-generator required, PIC16F877A Definitions
    83                           ; 
    84                           ; SFR Addresses
    85     0004                     fsr             equ	4
    86     0004                     fsr0            equ	4
    87     0000                     indf            equ	0
    88     0000                     indf0           equ	0
    89     0002                     pc              equ	2
    90     0002                     pcl             equ	2
    91     000A                     pclath          equ	10
    92     0003                     status          equ	3
    93     0000                     INDF            equ	0	;# 
    94     0001                     TMR0            equ	1	;# 
    95     0002                     PCL             equ	2	;# 
    96     0003                     STATUS          equ	3	;# 
    97     0004                     FSR             equ	4	;# 
    98     0005                     PORTA           equ	5	;# 
    99     0006                     PORTB           equ	6	;# 
   100     0007                     PORTC           equ	7	;# 
   101     0008                     PORTD           equ	8	;# 
   102     0009                     PORTE           equ	9	;# 
   103     000A                     PCLATH          equ	10	;# 
   104     000B                     INTCON          equ	11	;# 
   105     000C                     PIR1            equ	12	;# 
   106     000D                     PIR2            equ	13	;# 
   107     000E                     TMR1            equ	14	;# 
   108     000E                     TMR1L           equ	14	;# 
   109     000F                     TMR1H           equ	15	;# 
   110     0010                     T1CON           equ	16	;# 
   111     0011                     TMR2            equ	17	;# 
   112     0012                     T2CON           equ	18	;# 
   113     0013                     SSPBUF          equ	19	;# 
   114     0014                     SSPCON          equ	20	;# 
   115     0015                     CCPR1           equ	21	;# 
   116     0015                     CCPR1L          equ	21	;# 
   117     0016                     CCPR1H          equ	22	;# 
   118     0017                     CCP1CON         equ	23	;# 
   119     0018                     RCSTA           equ	24	;# 
   120     0019                     TXREG           equ	25	;# 
   121     001A                     RCREG           equ	26	;# 
   122     001B                     CCPR2           equ	27	;# 
   123     001B                     CCPR2L          equ	27	;# 
   124     001C                     CCPR2H          equ	28	;# 
   125     001D                     CCP2CON         equ	29	;# 
   126     001E                     ADRESH          equ	30	;# 
   127     001F                     ADCON0          equ	31	;# 
   128     0081                     OPTION_REG      equ	129	;# 
   129     0085                     TRISA           equ	133	;# 
   130     0086                     TRISB           equ	134	;# 
   131     0087                     TRISC           equ	135	;# 
   132     0088                     TRISD           equ	136	;# 
   133     0089                     TRISE           equ	137	;# 
   134     008C                     PIE1            equ	140	;# 
   135     008D                     PIE2            equ	141	;# 
   136     008E                     PCON            equ	142	;# 
   137     0091                     SSPCON2         equ	145	;# 
   138     0092                     PR2             equ	146	;# 
   139     0093                     SSPADD          equ	147	;# 
   140     0094                     SSPSTAT         equ	148	;# 
   141     0098                     TXSTA           equ	152	;# 
   142     0099                     SPBRG           equ	153	;# 
   143     009C                     CMCON           equ	156	;# 
   144     009D                     CVRCON          equ	157	;# 
   145     009E                     ADRESL          equ	158	;# 
   146     009F                     ADCON1          equ	159	;# 
   147     010C                     EEDATA          equ	268	;# 
   148     010D                     EEADR           equ	269	;# 
   149     010E                     EEDATH          equ	270	;# 
   150     010F                     EEADRH          equ	271	;# 
   151     018C                     EECON1          equ	396	;# 
   152     018D                     EECON2          equ	397	;# 
   153     0000                     INDF            equ	0	;# 
   154     0001                     TMR0            equ	1	;# 
   155     0002                     PCL             equ	2	;# 
   156     0003                     STATUS          equ	3	;# 
   157     0004                     FSR             equ	4	;# 
   158     0005                     PORTA           equ	5	;# 
   159     0006                     PORTB           equ	6	;# 
   160     0007                     PORTC           equ	7	;# 
   161     0008                     PORTD           equ	8	;# 
   162     0009                     PORTE           equ	9	;# 
   163     000A                     PCLATH          equ	10	;# 
   164     000B                     INTCON          equ	11	;# 
   165     000C                     PIR1            equ	12	;# 
   166     000D                     PIR2            equ	13	;# 
   167     000E                     TMR1            equ	14	;# 
   168     000E                     TMR1L           equ	14	;# 
   169     000F                     TMR1H           equ	15	;# 
   170     0010                     T1CON           equ	16	;# 
   171     0011                     TMR2            equ	17	;# 
   172     0012                     T2CON           equ	18	;# 
   173     0013                     SSPBUF          equ	19	;# 
   174     0014                     SSPCON          equ	20	;# 
   175     0015                     CCPR1           equ	21	;# 
   176     0015                     CCPR1L          equ	21	;# 
   177     0016                     CCPR1H          equ	22	;# 
   178     0017                     CCP1CON         equ	23	;# 
   179     0018                     RCSTA           equ	24	;# 
   180     0019                     TXREG           equ	25	;# 
   181     001A                     RCREG           equ	26	;# 
   182     001B                     CCPR2           equ	27	;# 
   183     001B                     CCPR2L          equ	27	;# 
   184     001C                     CCPR2H          equ	28	;# 
   185     001D                     CCP2CON         equ	29	;# 
   186     001E                     ADRESH          equ	30	;# 
   187     001F                     ADCON0          equ	31	;# 
   188     0081                     OPTION_REG      equ	129	;# 
   189     0085                     TRISA           equ	133	;# 
   190     0086                     TRISB           equ	134	;# 
   191     0087                     TRISC           equ	135	;# 
   192     0088                     TRISD           equ	136	;# 
   193     0089                     TRISE           equ	137	;# 
   194     008C                     PIE1            equ	140	;# 
   195     008D                     PIE2            equ	141	;# 
   196     008E                     PCON            equ	142	;# 
   197     0091                     SSPCON2         equ	145	;# 
   198     0092                     PR2             equ	146	;# 
   199     0093                     SSPADD          equ	147	;# 
   200     0094                     SSPSTAT         equ	148	;# 
   201     0098                     TXSTA           equ	152	;# 
   202     0099                     SPBRG           equ	153	;# 
   203     009C                     CMCON           equ	156	;# 
   204     009D                     CVRCON          equ	157	;# 
   205     009E                     ADRESL          equ	158	;# 
   206     009F                     ADCON1          equ	159	;# 
   207     010C                     EEDATA          equ	268	;# 
   208     010D                     EEADR           equ	269	;# 
   209     010E                     EEDATH          equ	270	;# 
   210     010F                     EEADRH          equ	271	;# 
   211     018C                     EECON1          equ	396	;# 
   212     018D                     EECON2          equ	397	;# 
   213     001E                     _ADRESH         set	30
   214     001F                     _ADCON0         set	31
   215     001B                     _CCPR2L         set	27
   216     0011                     _TMR2           set	17
   217     001D                     _CCP2CON        set	29
   218     0015                     _CCPR1L         set	21
   219     0017                     _CCP1CON        set	23
   220     0012                     _T2CON          set	18
   221     0001                     _TMR0           set	1
   222     0007                     _PORTC          set	7
   223     000B                     _INTCON         set	11
   224     0008                     _PORTD          set	8
   225     0006                     _PORTB          set	6
   226     009E                     _ADRESL         set	158
   227     009F                     _ADCON1         set	159
   228     0092                     _PR2            set	146
   229     0081                     _OPTION_REG     set	129
   230     0087                     _TRISC          set	135
   231     0088                     _TRISD          set	136
   232     0086                     _TRISB          set	134
   233                           
   234                           	psect	cinit
   235     0011                     start_initialization:	
   236                           ; #config settings
   237                           
   238     0011                     __initialization:
   239                           
   240                           ; Clear objects allocated to BANK0
   241     0011  1283               	bcf	3,5	;RP0=0, select bank0
   242     0012  1303               	bcf	3,6	;RP1=0, select bank0
   243     0013  01D7               	clrf	__pbssBANK0& (0+127)
   244     0014  01D8               	clrf	(__pbssBANK0+1)& (0+127)
   245                           
   246                           ; Clear objects allocated to BANK1
   247     0015  1683               	bsf	3,5	;RP0=1, select bank1
   248     0016  1303               	bcf	3,6	;RP1=0, select bank1
   249     0017  01BB               	clrf	__pbssBANK1& (0+127)
   250     0018  01BC               	clrf	(__pbssBANK1+1)& (0+127)
   251     0019  01BD               	clrf	(__pbssBANK1+2)& (0+127)
   252     001A                     end_of_initialization:	
   253                           ;End of C runtime variable initialization code
   254                           
   255     001A                     __end_of__initialization:
   256     001A  0183               	clrf	3
   257     001B  120A  118A  2AA3   	ljmp	_main	;jump to C main() function
   258                           
   259                           	psect	bssBANK0
   260     0057                     __pbssBANK0:
   261     0057                     _cntr:
   262     0057                     	ds	2
   263                           
   264                           	psect	bssBANK1
   265     00BB                     __pbssBANK1:
   266     00BB                     _tmp:
   267     00BB                     	ds	2
   268     00BD                     _water_flag:
   269     00BD                     	ds	1
   270                           
   271                           	psect	cstackBANK1
   272     00A0                     __pcstackBANK1:
   273     00A0                     Set_PWM_Duty@duty:
   274     00A0                     ___fldiv@rem:	
   275                           ; 2 bytes @ 0x0
   276                           
   277                           
   278                           ; 4 bytes @ 0x0
   279     00A0                     	ds	4
   280     00A4                     ___fldiv@sign:
   281                           
   282                           ; 1 bytes @ 0x4
   283     00A4                     	ds	1
   284     00A5                     ___fldiv@new_exp:
   285                           
   286                           ; 2 bytes @ 0x5
   287     00A5                     	ds	2
   288     00A7                     ___fldiv@grs:
   289                           
   290                           ; 4 bytes @ 0x7
   291     00A7                     	ds	4
   292     00AB                     ___fldiv@bexp:
   293                           
   294                           ; 1 bytes @ 0xB
   295     00AB                     	ds	1
   296     00AC                     ___fldiv@aexp:
   297                           
   298                           ; 1 bytes @ 0xC
   299     00AC                     	ds	1
   300     00AD                     ??___fltol:
   301                           
   302                           ; 1 bytes @ 0xD
   303     00AD                     	ds	4
   304     00B1                     ___fltol@sign1:
   305                           
   306                           ; 1 bytes @ 0x11
   307     00B1                     	ds	1
   308     00B2                     ___fltol@exp1:
   309                           
   310                           ; 1 bytes @ 0x12
   311     00B2                     	ds	1
   312     00B3                     ?_Read_Ultrasonic:
   313                           
   314                           ; 2 bytes @ 0x13
   315     00B3                     	ds	2
   316     00B5                     Read_Ultrasonic@time:
   317                           
   318                           ; 2 bytes @ 0x15
   319     00B5                     	ds	2
   320     00B7                     Read_Ultrasonic@timeout:
   321                           
   322                           ; 2 bytes @ 0x17
   323     00B7                     	ds	2
   324     00B9                     main@lev:
   325                           
   326                           ; 2 bytes @ 0x19
   327     00B9                     	ds	2
   328                           
   329                           	psect	cstackCOMMON
   330     0070                     __pcstackCOMMON:
   331     0070                     ?_Ultrasonic_Init:
   332     0070                     ?_Initialize_Hbridge:	
   333                           ; 1 bytes @ 0x0
   334                           
   335     0070                     ?_PWM_Init_S:	
   336                           ; 1 bytes @ 0x0
   337                           
   338     0070                     ?_openDoor:	
   339                           ; 1 bytes @ 0x0
   340                           
   341     0070                     ?_closeDoor:	
   342                           ; 1 bytes @ 0x0
   343                           
   344     0070                     ?_init_interrupt:	
   345                           ; 1 bytes @ 0x0
   346                           
   347     0070                     ?_Fan_on:	
   348                           ; 1 bytes @ 0x0
   349                           
   350     0070                     ?_Fan_off:	
   351                           ; 1 bytes @ 0x0
   352                           
   353     0070                     ?_Pump_on:	
   354                           ; 1 bytes @ 0x0
   355                           
   356     0070                     ?_Pump_off:	
   357                           ; 1 bytes @ 0x0
   358                           
   359     0070                     ?_main:	
   360                           ; 1 bytes @ 0x0
   361                           
   362     0070                     ?_isr:	
   363                           ; 1 bytes @ 0x0
   364                           
   365     0070                     ?_myISR:	
   366                           ; 1 bytes @ 0x0
   367                           
   368     0070                     ?_PWM_Init_H:	
   369                           ; 1 bytes @ 0x0
   370                           
   371     0070                     ?i1_PWM_Init_S:	
   372                           ; 1 bytes @ 0x0
   373                           
   374     0070                     ?i1_openDoor:	
   375                           ; 1 bytes @ 0x0
   376                           
   377     0070                     ?i1_closeDoor:	
   378                           ; 1 bytes @ 0x0
   379                           
   380     0070                     ?i1_delay_us:	
   381                           ; 1 bytes @ 0x0
   382                           
   383     0070                     ?i1___wmul:	
   384                           ; 1 bytes @ 0x0
   385                           
   386     0070                     ?i1___lmul:	
   387                           ; 2 bytes @ 0x0
   388                           
   389     0070                     i1delay_us@x:	
   390                           ; 4 bytes @ 0x0
   391                           
   392     0070                     i1___wmul@multiplier:	
   393                           ; 2 bytes @ 0x0
   394                           
   395     0070                     i1___lmul@multiplier:	
   396                           ; 2 bytes @ 0x0
   397                           
   398     0070                     ??_PWM_Init_H:	
   399                           ; 4 bytes @ 0x0
   400                           
   401     0070                     ??i1_PWM_Init_S:	
   402                           ; 1 bytes @ 0x0
   403                           
   404                           
   405                           ; 1 bytes @ 0x0
   406     0070                     	ds	2
   407     0072                     i1delay_us@i:
   408     0072                     i1___wmul@multiplicand:	
   409                           ; 2 bytes @ 0x2
   410                           
   411     0072                     ??i1_delay_us:	
   412                           ; 2 bytes @ 0x2
   413                           
   414                           
   415                           ; 1 bytes @ 0x2
   416     0072                     	ds	2
   417     0074                     ?i1_delay_ms:
   418     0074                     i1delay_ms@x:	
   419                           ; 1 bytes @ 0x4
   420                           
   421     0074                     i1___wmul@product:	
   422                           ; 2 bytes @ 0x4
   423                           
   424     0074                     i1___lmul@multiplicand:	
   425                           ; 2 bytes @ 0x4
   426                           
   427     0074                     ??i1___wmul:	
   428                           ; 4 bytes @ 0x4
   429                           
   430                           
   431                           ; 1 bytes @ 0x4
   432     0074                     	ds	2
   433     0076                     i1delay_ms@i:
   434     0076                     ??i1_delay_ms:	
   435                           ; 2 bytes @ 0x6
   436                           
   437                           
   438                           ; 1 bytes @ 0x6
   439     0076                     	ds	2
   440     0078                     ??i1___lmul:
   441                           
   442                           ; 1 bytes @ 0x8
   443     0078                     	ds	1
   444     0079                     i1___lmul@product:
   445                           
   446                           ; 4 bytes @ 0x9
   447     0079                     	ds	4
   448     007D                     ??___lldiv:
   449     007D                     ??i1___aldiv:	
   450                           ; 1 bytes @ 0xD
   451                           
   452                           
   453                           ; 1 bytes @ 0xD
   454     007D                     	ds	1
   455     007E                     ??_Pump_on:
   456     007E                     ??_Pump_off:	
   457                           ; 1 bytes @ 0xE
   458                           
   459     007E                     ??_isr:	
   460                           ; 1 bytes @ 0xE
   461                           
   462     007E                     ??i1_openDoor:	
   463                           ; 1 bytes @ 0xE
   464                           
   465     007E                     ??i1_closeDoor:	
   466                           ; 1 bytes @ 0xE
   467                           
   468                           
   469                           	psect	cstackBANK0
   470     0020                     __pcstackBANK0:	
   471                           ; 1 bytes @ 0xE
   472                           
   473     0020                     ?___lldiv:
   474     0020                     ?i1___aldiv:	
   475                           ; 4 bytes @ 0x0
   476                           
   477     0020                     ___lldiv@divisor:	
   478                           ; 4 bytes @ 0x0
   479                           
   480     0020                     i1___aldiv@divisor:	
   481                           ; 4 bytes @ 0x0
   482                           
   483                           
   484                           ; 4 bytes @ 0x0
   485     0020                     	ds	4
   486     0024                     ___lldiv@dividend:
   487     0024                     i1___aldiv@dividend:	
   488                           ; 4 bytes @ 0x4
   489                           
   490                           
   491                           ; 4 bytes @ 0x4
   492     0024                     	ds	4
   493     0028                     i1___aldiv@counter:
   494     0028                     ___lldiv@quotient:	
   495                           ; 1 bytes @ 0x8
   496                           
   497                           
   498                           ; 4 bytes @ 0x8
   499     0028                     	ds	1
   500     0029                     i1___aldiv@sign:
   501                           
   502                           ; 1 bytes @ 0x9
   503     0029                     	ds	1
   504     002A                     i1___aldiv@quotient:
   505                           
   506                           ; 4 bytes @ 0xA
   507     002A                     	ds	2
   508     002C                     ___lldiv@counter:
   509                           
   510                           ; 1 bytes @ 0xC
   511     002C                     	ds	1
   512     002D                     ?_H_Bridge_PWM:
   513     002D                     H_Bridge_PWM@duty_percent:	
   514                           ; 1 bytes @ 0xD
   515                           
   516                           
   517                           ; 2 bytes @ 0xD
   518     002D                     	ds	1
   519     002E                     ?i1_Set_PWM_Duty:
   520     002E                     i1Set_PWM_Duty@duty_us:	
   521                           ; 1 bytes @ 0xE
   522                           
   523                           
   524                           ; 2 bytes @ 0xE
   525     002E                     	ds	1
   526     002F                     ??_H_Bridge_PWM:
   527                           
   528                           ; 1 bytes @ 0xF
   529     002F                     	ds	1
   530     0030                     ??i1_Set_PWM_Duty:
   531                           
   532                           ; 1 bytes @ 0x10
   533     0030                     	ds	1
   534     0031                     H_Bridge_PWM@duty:
   535                           
   536                           ; 2 bytes @ 0x11
   537     0031                     	ds	1
   538     0032                     i1Set_PWM_Duty@duty:
   539                           
   540                           ; 2 bytes @ 0x12
   541     0032                     	ds	2
   542     0034                     isr@pill_taken:
   543                           
   544                           ; 1 bytes @ 0x14
   545     0034                     	ds	1
   546     0035                     ??_myISR:
   547                           
   548                           ; 1 bytes @ 0x15
   549     0035                     	ds	2
   550     0037                     ?_delay_us:
   551     0037                     ?___wmul:	
   552                           ; 1 bytes @ 0x17
   553                           
   554     0037                     ?___lwdiv:	
   555                           ; 2 bytes @ 0x17
   556                           
   557     0037                     ?___lmul:	
   558                           ; 2 bytes @ 0x17
   559                           
   560     0037                     ?___xxtofl:	
   561                           ; 4 bytes @ 0x17
   562                           
   563     0037                     delay_us@x:	
   564                           ; 4 bytes @ 0x17
   565                           
   566     0037                     ___wmul@multiplier:	
   567                           ; 2 bytes @ 0x17
   568                           
   569     0037                     ___lwdiv@divisor:	
   570                           ; 2 bytes @ 0x17
   571                           
   572     0037                     ___lmul@multiplier:	
   573                           ; 2 bytes @ 0x17
   574                           
   575     0037                     ___xxtofl@val:	
   576                           ; 4 bytes @ 0x17
   577                           
   578     0037                     ??_Ultrasonic_Init:	
   579                           ; 4 bytes @ 0x17
   580                           
   581     0037                     ??_Initialize_Hbridge:	
   582                           ; 1 bytes @ 0x17
   583                           
   584     0037                     ??_PWM_Init_S:	
   585                           ; 1 bytes @ 0x17
   586                           
   587     0037                     ??_init_interrupt:	
   588                           ; 1 bytes @ 0x17
   589                           
   590     0037                     ??_Fan_on:	
   591                           ; 1 bytes @ 0x17
   592                           
   593     0037                     ??_Fan_off:	
   594                           ; 1 bytes @ 0x17
   595                           
   596                           
   597                           ; 1 bytes @ 0x17
   598     0037                     	ds	2
   599     0039                     delay_us@i:
   600     0039                     ___wmul@multiplicand:	
   601                           ; 2 bytes @ 0x19
   602                           
   603     0039                     ___lwdiv@dividend:	
   604                           ; 2 bytes @ 0x19
   605                           
   606     0039                     ??_delay_us:	
   607                           ; 2 bytes @ 0x19
   608                           
   609                           
   610                           ; 1 bytes @ 0x19
   611     0039                     	ds	2
   612     003B                     ?_delay_ms:
   613     003B                     delay_ms@x:	
   614                           ; 1 bytes @ 0x1B
   615                           
   616     003B                     ___wmul@product:	
   617                           ; 2 bytes @ 0x1B
   618                           
   619     003B                     ___lwdiv@quotient:	
   620                           ; 2 bytes @ 0x1B
   621                           
   622     003B                     ___lmul@multiplicand:	
   623                           ; 2 bytes @ 0x1B
   624                           
   625     003B                     ??___wmul:	
   626                           ; 4 bytes @ 0x1B
   627                           
   628     003B                     ??___lwdiv:	
   629                           ; 1 bytes @ 0x1B
   630                           
   631     003B                     ??___xxtofl:	
   632                           ; 1 bytes @ 0x1B
   633                           
   634                           
   635                           ; 1 bytes @ 0x1B
   636     003B                     	ds	2
   637     003D                     ___lwdiv@counter:
   638     003D                     delay_ms@i:	
   639                           ; 1 bytes @ 0x1D
   640                           
   641     003D                     ??_delay_ms:	
   642                           ; 2 bytes @ 0x1D
   643                           
   644                           
   645                           ; 1 bytes @ 0x1D
   646     003D                     	ds	1
   647     003E                     ?_adc:
   648                           
   649                           ; 2 bytes @ 0x1E
   650     003E                     	ds	1
   651     003F                     ___xxtofl@sign:
   652     003F                     ??___lmul:	
   653                           ; 1 bytes @ 0x1F
   654                           
   655                           
   656                           ; 1 bytes @ 0x1F
   657     003F                     	ds	1
   658     0040                     ___xxtofl@exp:
   659     0040                     adc@adcval:	
   660                           ; 1 bytes @ 0x20
   661                           
   662     0040                     ___lmul@product:	
   663                           ; 2 bytes @ 0x20
   664                           
   665     0040                     ??_adc:	
   666                           ; 4 bytes @ 0x20
   667                           
   668                           
   669                           ; 1 bytes @ 0x20
   670     0040                     	ds	1
   671     0041                     ___xxtofl@arg:
   672                           
   673                           ; 4 bytes @ 0x21
   674     0041                     	ds	3
   675     0044                     ?___aldiv:
   676     0044                     ___aldiv@divisor:	
   677                           ; 4 bytes @ 0x24
   678                           
   679                           
   680                           ; 4 bytes @ 0x24
   681     0044                     	ds	1
   682     0045                     ?___fldiv:
   683     0045                     ___fldiv@a:	
   684                           ; 4 bytes @ 0x25
   685                           
   686                           
   687                           ; 4 bytes @ 0x25
   688     0045                     	ds	3
   689     0048                     ___aldiv@dividend:
   690                           
   691                           ; 4 bytes @ 0x28
   692     0048                     	ds	1
   693     0049                     ___fldiv@b:
   694                           
   695                           ; 4 bytes @ 0x29
   696     0049                     	ds	3
   697     004C                     ??___aldiv:
   698                           
   699                           ; 1 bytes @ 0x2C
   700     004C                     	ds	1
   701     004D                     ___aldiv@counter:
   702     004D                     ??___fldiv:	
   703                           ; 1 bytes @ 0x2D
   704                           
   705                           
   706                           ; 1 bytes @ 0x2D
   707     004D                     	ds	1
   708     004E                     ___aldiv@sign:
   709                           
   710                           ; 1 bytes @ 0x2E
   711     004E                     	ds	1
   712     004F                     ___aldiv@quotient:
   713                           
   714                           ; 4 bytes @ 0x2F
   715     004F                     	ds	3
   716     0052                     ?___fltol:
   717     0052                     ___fltol@f1:	
   718                           ; 4 bytes @ 0x32
   719                           
   720                           
   721                           ; 4 bytes @ 0x32
   722     0052                     	ds	1
   723     0053                     ?_Set_PWM_Duty:
   724     0053                     Set_PWM_Duty@duty_us:	
   725                           ; 1 bytes @ 0x33
   726                           
   727                           
   728                           ; 2 bytes @ 0x33
   729     0053                     	ds	2
   730     0055                     ??_Set_PWM_Duty:
   731                           
   732                           ; 1 bytes @ 0x35
   733     0055                     	ds	1
   734     0056                     ??_Read_Ultrasonic:
   735                           
   736                           ; 1 bytes @ 0x36
   737     0056                     	ds	1
   738     0057                     ??_openDoor:
   739     0057                     ??_closeDoor:	
   740                           ; 1 bytes @ 0x37
   741                           
   742     0057                     ??_main:	
   743                           ; 1 bytes @ 0x37
   744                           
   745                           
   746                           	psect	maintext
   747     02A3                     __pmaintext:	
   748                           ; 1 bytes @ 0x37
   749 ;;
   750 ;;Main: autosize = 0, tempsize = 0, incstack = 0, save=0
   751 ;;
   752 ;; *************** function _main *****************
   753 ;; Defined at:
   754 ;;		line 60 in file "main.c"
   755 ;; Parameters:    Size  Location     Type
   756 ;;		None
   757 ;; Auto vars:     Size  Location     Type
   758 ;;  lev             2   25[BANK1 ] unsigned int 
   759 ;; Return value:  Size  Location     Type
   760 ;;                  1    wreg      void 
   761 ;; Registers used:
   762 ;;		wreg, status,2, status,0, btemp+1, pclath, cstack
   763 ;; Tracked objects:
   764 ;;		On entry : B00/0
   765 ;;		On exit  : 0/0
   766 ;;		Unchanged: 0/0
   767 ;; Data sizes:     COMMON   BANK0   BANK1   BANK3   BANK2
   768 ;;      Params:         0       0       0       0       0
   769 ;;      Locals:         0       0       2       0       0
   770 ;;      Temps:          0       0       0       0       0
   771 ;;      Totals:         0       0       2       0       0
   772 ;;Total ram usage:        2 bytes
   773 ;; Hardware stack levels required when called: 9
   774 ;; This function calls:
   775 ;;		_Fan_off
   776 ;;		_Fan_on
   777 ;;		_Initialize_Hbridge
   778 ;;		_PWM_Init_S
   779 ;;		_Read_Ultrasonic
   780 ;;		_Ultrasonic_Init
   781 ;;		_adc
   782 ;;		_closeDoor
   783 ;;		_delay_ms
   784 ;;		_init_interrupt
   785 ;;		_openDoor
   786 ;; This function is called by:
   787 ;;		Startup code after reset
   788 ;; This function uses a non-reentrant model
   789 ;;
   790                           
   791     02A3                     _main:	
   792                           ;psect for function _main
   793                           
   794     02A3                     l2339:	
   795                           ;incstack = 0
   796 ;; hardware stack exceeded
   797                           ; Regs used in _main: [wreg+status,2+status,0+btemp+1+pclath+cstack]
   798                           
   799                           
   800                           ;main.c: 61:     Ultrasonic_Init();
   801     02A3  120A  158A  2421  120A  118A  	fcall	_Ultrasonic_Init
   802                           
   803                           ;main.c: 62:     Initialize_Hbridge();
   804     02A8  120A  158A  2416  120A  118A  	fcall	_Initialize_Hbridge
   805     02AD                     l2341:
   806                           
   807                           ;main.c: 63:     PWM_Init_S();
   808     02AD  120A  158A  2456  120A  118A  	fcall	_PWM_Init_S
   809     02B2                     l2343:
   810                           
   811                           ;main.c: 65:     TRISB = TRISB & 0xFE;
   812     02B2  1683               	bsf	3,5	;RP0=1, select bank1
   813     02B3  1303               	bcf	3,6	;RP1=0, select bank1
   814     02B4  0806               	movf	6,w	;volatile
   815     02B5  39FE               	andlw	254
   816     02B6  0086               	movwf	6	;volatile
   817     02B7                     l2345:
   818                           
   819                           ;main.c: 66:     PORTB = PORTB | 0x01;
   820     02B7  1283               	bcf	3,5	;RP0=0, select bank0
   821     02B8  1303               	bcf	3,6	;RP1=0, select bank0
   822     02B9  0806               	movf	6,w	;volatile
   823     02BA  3801               	iorlw	1
   824     02BB  0086               	movwf	6	;volatile
   825     02BC                     l2347:
   826                           
   827                           ;main.c: 67:     TRISB = TRISB | 0x02;
   828     02BC  1683               	bsf	3,5	;RP0=1, select bank1
   829     02BD  1303               	bcf	3,6	;RP1=0, select bank1
   830     02BE  0806               	movf	6,w	;volatile
   831     02BF  3802               	iorlw	2
   832     02C0  0086               	movwf	6	;volatile
   833     02C1                     l2349:
   834                           
   835                           ;main.c: 68:     TRISD = TRISD | 0x01;
   836     02C1  0808               	movf	8,w	;volatile
   837     02C2  3801               	iorlw	1
   838     02C3  0088               	movwf	8	;volatile
   839     02C4                     l2351:
   840                           
   841                           ;main.c: 69:     TRISC = TRISC & 0xDF;
   842     02C4  0807               	movf	7,w	;volatile
   843     02C5  39DF               	andlw	223
   844     02C6  0087               	movwf	7	;volatile
   845     02C7                     l2353:
   846                           
   847                           ;main.c: 70:     TRISC = TRISC & 0xBF;
   848     02C7  0807               	movf	7,w	;volatile
   849     02C8  39BF               	andlw	191
   850     02C9  0087               	movwf	7	;volatile
   851     02CA                     l2355:
   852                           
   853                           ;main.c: 71:     TRISD = TRISD | 0x10;
   854     02CA  0808               	movf	8,w	;volatile
   855     02CB  3810               	iorlw	16
   856     02CC  0088               	movwf	8	;volatile
   857     02CD                     l2357:
   858                           
   859                           ;main.c: 72:     TRISD = TRISD & 0xF7;
   860     02CD  0808               	movf	8,w	;volatile
   861     02CE  39F7               	andlw	247
   862     02CF  0088               	movwf	8	;volatile
   863     02D0                     l2359:
   864                           
   865                           ;main.c: 73:     PORTD = PORTD & 0xF7;
   866     02D0  1283               	bcf	3,5	;RP0=0, select bank0
   867     02D1  1303               	bcf	3,6	;RP1=0, select bank0
   868     02D2  0808               	movf	8,w	;volatile
   869     02D3  39F7               	andlw	247
   870     02D4  0088               	movwf	8	;volatile
   871     02D5                     l2361:
   872                           
   873                           ;main.c: 74:     TRISD = TRISD & 0xFB;
   874     02D5  1683               	bsf	3,5	;RP0=1, select bank1
   875     02D6  1303               	bcf	3,6	;RP1=0, select bank1
   876     02D7  0808               	movf	8,w	;volatile
   877     02D8  39FB               	andlw	251
   878     02D9  0088               	movwf	8	;volatile
   879     02DA                     l2363:
   880                           
   881                           ;main.c: 75:     PORTD = PORTD & 0xFB;
   882     02DA  1283               	bcf	3,5	;RP0=0, select bank0
   883     02DB  1303               	bcf	3,6	;RP1=0, select bank0
   884     02DC  0808               	movf	8,w	;volatile
   885     02DD  39FB               	andlw	251
   886     02DE  0088               	movwf	8	;volatile
   887     02DF                     l2365:
   888                           
   889                           ;main.c: 76:     PORTB = PORTB & 0x3F;
   890     02DF  0806               	movf	6,w	;volatile
   891     02E0  393F               	andlw	63
   892     02E1  0086               	movwf	6	;volatile
   893     02E2                     l2367:
   894                           
   895                           ;main.c: 78:     openDoor();
   896     02E2  120A  118A  27F4  120A  118A  	fcall	_openDoor
   897                           
   898                           ;main.c: 79:     while (!(PORTD & 0x10)) {
   899     02E7  2AE9               	goto	l79
   900     02E8                     l80:
   901     02E8  0000               	nop	;# 
   902     02E9                     l79:	
   903                           ;main.c: 81:     }
   904                           
   905                           
   906                           ;main.c: 79:     while (!(PORTD & 0x10)) {
   907     02E9  1283               	bcf	3,5	;RP0=0, select bank0
   908     02EA  1303               	bcf	3,6	;RP1=0, select bank0
   909     02EB  1E08               	btfss	8,4	;volatile
   910     02EC  2AEE               	goto	u3141
   911     02ED  2AEF               	goto	u3140
   912     02EE                     u3141:
   913     02EE  2AE8               	goto	l80
   914     02EF                     u3140:
   915     02EF                     l2369:
   916                           
   917                           ;main.c: 82:     closeDoor();
   918     02EF  120A  158A  2462  120A  118A  	fcall	_closeDoor
   919                           
   920                           ;main.c: 84:     delay_ms(1000);
   921     02F4  30E8               	movlw	232
   922     02F5  1283               	bcf	3,5	;RP0=0, select bank0
   923     02F6  1303               	bcf	3,6	;RP1=0, select bank0
   924     02F7  00BB               	movwf	delay_ms@x
   925     02F8  3003               	movlw	3
   926     02F9  00BC               	movwf	delay_ms@x+1
   927     02FA  120A  158A  24DB  120A  118A  	fcall	_delay_ms
   928     02FF                     l2371:
   929                           
   930                           ;main.c: 85:     PORTD = PORTD & 0xF3;
   931     02FF  1283               	bcf	3,5	;RP0=0, select bank0
   932     0300  1303               	bcf	3,6	;RP1=0, select bank0
   933     0301  0808               	movf	8,w	;volatile
   934     0302  39F3               	andlw	243
   935     0303  0088               	movwf	8	;volatile
   936     0304                     l2373:
   937                           
   938                           ;main.c: 86:     delay_ms(1000);
   939     0304  30E8               	movlw	232
   940     0305  00BB               	movwf	delay_ms@x
   941     0306  3003               	movlw	3
   942     0307  00BC               	movwf	delay_ms@x+1
   943     0308  120A  158A  24DB  120A  118A  	fcall	_delay_ms
   944                           
   945                           ;main.c: 87:     PORTD = PORTD | 0x0C;
   946     030D  1283               	bcf	3,5	;RP0=0, select bank0
   947     030E  1303               	bcf	3,6	;RP1=0, select bank0
   948     030F  0808               	movf	8,w	;volatile
   949     0310  380C               	iorlw	12
   950     0311  0088               	movwf	8	;volatile
   951     0312                     l2375:
   952                           
   953                           ;main.c: 88:     delay_ms(1000);
   954     0312  30E8               	movlw	232
   955     0313  00BB               	movwf	delay_ms@x
   956     0314  3003               	movlw	3
   957     0315  00BC               	movwf	delay_ms@x+1
   958     0316  120A  158A  24DB  120A  118A  	fcall	_delay_ms
   959     031B                     l2377:
   960                           
   961                           ;main.c: 89:     PORTD = PORTD & 0xF3;
   962     031B  1283               	bcf	3,5	;RP0=0, select bank0
   963     031C  1303               	bcf	3,6	;RP1=0, select bank0
   964     031D  0808               	movf	8,w	;volatile
   965     031E  39F3               	andlw	243
   966     031F  0088               	movwf	8	;volatile
   967                           
   968                           ;main.c: 91:     init_interrupt();
   969     0320  120A  158A  2427  120A  118A  	fcall	_init_interrupt
   970     0325                     l82:	
   971                           ;main.c: 93:     while (1) {
   972                           
   973                           
   974                           ;main.c: 94:         tmp = adc();
   975     0325  120A  158A  2575  120A  118A  	fcall	_adc
   976     032A  1283               	bcf	3,5	;RP0=0, select bank0
   977     032B  1303               	bcf	3,6	;RP1=0, select bank0
   978     032C  083F               	movf	?_adc+1,w
   979     032D  1683               	bsf	3,5	;RP0=1, select bank1
   980     032E  1303               	bcf	3,6	;RP1=0, select bank1
   981     032F  00BC               	movwf	(_tmp+1)^(0+128)
   982     0330  1283               	bcf	3,5	;RP0=0, select bank0
   983     0331  1303               	bcf	3,6	;RP1=0, select bank0
   984     0332  083E               	movf	?_adc,w
   985     0333  1683               	bsf	3,5	;RP0=1, select bank1
   986     0334  1303               	bcf	3,6	;RP1=0, select bank1
   987     0335  00BB               	movwf	_tmp^(0+128)
   988     0336                     l2379:
   989                           
   990                           ;main.c: 95:         if (tmp >= 0 && tmp <= 20);
   991     0336  3000               	movlw	0
   992     0337  023C               	subwf	(_tmp+1)^(0+128),w
   993     0338  3015               	movlw	21
   994     0339  1903               	skipnz
   995     033A  023B               	subwf	_tmp^(0+128),w
   996     033B  1803               	skipnc
   997     033C  2B3E               	goto	u3151
   998     033D  2B3F               	goto	u3150
   999     033E                     u3151:
  1000     033E  2B40               	goto	l2383
  1001     033F                     u3150:
  1002     033F  2B54               	goto	l2389
  1003     0340                     l2383:
  1004     0340  3000               	movlw	0
  1005     0341  023C               	subwf	(_tmp+1)^(0+128),w
  1006     0342  3013               	movlw	19
  1007     0343  1903               	skipnz
  1008     0344  023B               	subwf	_tmp^(0+128),w
  1009     0345  1803               	skipnc
  1010     0346  2B48               	goto	u3161
  1011     0347  2B49               	goto	u3160
  1012     0348                     u3161:
  1013     0348  2B4F               	goto	l2387
  1014     0349                     u3160:
  1015     0349                     l2385:
  1016                           
  1017                           ;main.c: 97:             Fan_on();
  1018     0349  120A  158A  241B  120A  118A  	fcall	_Fan_on
  1019                           
  1020                           ;main.c: 98:         } else {
  1021     034E  2B54               	goto	l2389
  1022     034F                     l2387:
  1023                           
  1024                           ;main.c: 99:             Fan_off();
  1025     034F  120A  158A  2411  120A  118A  	fcall	_Fan_off
  1026     0354                     l2389:
  1027                           
  1028                           ;main.c: 102:         unsigned int lev = Read_Ultrasonic();
  1029     0354  120A  118A  2399  120A  118A  	fcall	_Read_Ultrasonic
  1030     0359  1683               	bsf	3,5	;RP0=1, select bank1
  1031     035A  1303               	bcf	3,6	;RP1=0, select bank1
  1032     035B  0834               	movf	(?_Read_Ultrasonic+1)^(0+128),w
  1033     035C  00BA               	movwf	(main@lev+1)^(0+128)
  1034     035D  0833               	movf	?_Read_Ultrasonic^(0+128),w
  1035     035E  00B9               	movwf	main@lev^(0+128)
  1036     035F                     l2391:
  1037                           
  1038                           ;main.c: 103:         if (lev != (unsigned int)-1) {
  1039     035F  0A39               	incf	main@lev^(0+128),w
  1040     0360  1D03               	skipz
  1041     0361  2B67               	goto	u3170
  1042     0362  0A3A               	incf	(main@lev+1)^(0+128),w
  1043     0363  1903               	btfsc	3,2
  1044     0364  2B66               	goto	u3171
  1045     0365  2B67               	goto	u3170
  1046     0366                     u3171:
  1047     0366  2B25               	goto	l82
  1048     0367                     u3170:
  1049     0367                     l2393:
  1050                           
  1051                           ;main.c: 104:             if (lev > 5) {
  1052     0367  3000               	movlw	0
  1053     0368  023A               	subwf	(main@lev+1)^(0+128),w
  1054     0369  3006               	movlw	6
  1055     036A  1903               	skipnz
  1056     036B  0239               	subwf	main@lev^(0+128),w
  1057     036C  1C03               	skipc
  1058     036D  2B6F               	goto	u3181
  1059     036E  2B70               	goto	u3180
  1060     036F                     u3181:
  1061     036F  2B93               	goto	l2407
  1062     0370                     u3180:
  1063     0370                     l2395:
  1064                           
  1065                           ;main.c: 105:                 if (water_flag == 0) {
  1066     0370  083D               	movf	_water_flag^(0+128),w
  1067     0371  1D03               	btfss	3,2
  1068     0372  2B74               	goto	u3191
  1069     0373  2B75               	goto	u3190
  1070     0374                     u3191:
  1071     0374  2B95               	goto	l87
  1072     0375                     u3190:
  1073     0375                     l2397:
  1074                           
  1075                           ;main.c: 106:                     INTCON = INTCON & 0x7F;
  1076     0375  080B               	movf	11,w	;volatile
  1077     0376  397F               	andlw	127
  1078     0377  008B               	movwf	11	;volatile
  1079                           
  1080                           ;main.c: 107:                     PORTC = PORTC | 0x20;
  1081     0378  1283               	bcf	3,5	;RP0=0, select bank0
  1082     0379  1303               	bcf	3,6	;RP1=0, select bank0
  1083     037A  0807               	movf	7,w	;volatile
  1084     037B  3820               	iorlw	32
  1085     037C  0087               	movwf	7	;volatile
  1086     037D                     l2399:
  1087                           
  1088                           ;main.c: 108:                     delay_ms(250);
  1089     037D  30FA               	movlw	250
  1090     037E  00BB               	movwf	delay_ms@x
  1091     037F  3000               	movlw	0
  1092     0380  00BC               	movwf	delay_ms@x+1
  1093     0381  120A  158A  24DB  120A  118A  	fcall	_delay_ms
  1094     0386                     l2401:
  1095                           
  1096                           ;main.c: 109:                     PORTC = PORTC & 0xDF;
  1097     0386  1283               	bcf	3,5	;RP0=0, select bank0
  1098     0387  1303               	bcf	3,6	;RP1=0, select bank0
  1099     0388  0807               	movf	7,w	;volatile
  1100     0389  39DF               	andlw	223
  1101     038A  0087               	movwf	7	;volatile
  1102     038B                     l2403:
  1103                           
  1104                           ;main.c: 110:                     water_flag = 1;
  1105     038B  3001               	movlw	1
  1106     038C  1683               	bsf	3,5	;RP0=1, select bank1
  1107     038D  1303               	bcf	3,6	;RP1=0, select bank1
  1108     038E  00BD               	movwf	_water_flag^(0+128)
  1109     038F                     l2405:
  1110                           
  1111                           ;main.c: 111:                     INTCON = INTCON | 0x80;
  1112     038F  080B               	movf	11,w	;volatile
  1113     0390  3880               	iorlw	128
  1114     0391  008B               	movwf	11	;volatile
  1115     0392  2B25               	goto	l82
  1116     0393                     l2407:
  1117                           
  1118                           ;main.c: 114:                 water_flag = 0;
  1119     0393  01BD               	clrf	_water_flag^(0+128)
  1120     0394  2B25               	goto	l82
  1121     0395                     l87:	
  1122                           ;main.c: 116:         }
  1123                           
  1124     0395  2B25               	goto	l82
  1125     0396  120A  118A  280E   	ljmp	start
  1126     0399                     __end_of_main:
  1127                           
  1128                           	psect	text1
  1129     07F4                     __ptext1:	
  1130 ;; *************** function _openDoor *****************
  1131 ;; Defined at:
  1132 ;;		line 255 in file "main.c"
  1133 ;; Parameters:    Size  Location     Type
  1134 ;;		None
  1135 ;; Auto vars:     Size  Location     Type
  1136 ;;		None
  1137 ;; Return value:  Size  Location     Type
  1138 ;;                  1    wreg      void 
  1139 ;; Registers used:
  1140 ;;		wreg, status,2, status,0, pclath, cstack
  1141 ;; Tracked objects:
  1142 ;;		On entry : 0/0
  1143 ;;		On exit  : 0/0
  1144 ;;		Unchanged: 0/0
  1145 ;; Data sizes:     COMMON   BANK0   BANK1   BANK3   BANK2
  1146 ;;      Params:         0       0       0       0       0
  1147 ;;      Locals:         0       0       0       0       0
  1148 ;;      Temps:          0       0       0       0       0
  1149 ;;      Totals:         0       0       0       0       0
  1150 ;;Total ram usage:        0 bytes
  1151 ;; Hardware stack levels used: 1
  1152 ;; Hardware stack levels required when called: 8
  1153 ;; This function calls:
  1154 ;;		_Set_PWM_Duty
  1155 ;; This function is called by:
  1156 ;;		_main
  1157 ;; This function uses a non-reentrant model
  1158 ;;
  1159                           
  1160     07F4                     _openDoor:	
  1161                           ;psect for function _openDoor
  1162                           
  1163     07F4                     l2293:	
  1164                           ;incstack = 0
  1165 ;; hardware stack exceeded
  1166                           ; Regs used in _openDoor: [wreg+status,2+status,0+pclath+cstack]
  1167                           
  1168                           
  1169                           ;main.c: 256:     Set_PWM_Duty(60);
  1170     07F4  303C               	movlw	60
  1171     07F5  1283               	bcf	3,5	;RP0=0, select bank0
  1172     07F6  1303               	bcf	3,6	;RP1=0, select bank0
  1173     07F7  00D3               	movwf	Set_PWM_Duty@duty_us
  1174     07F8  3000               	movlw	0
  1175     07F9  00D4               	movwf	Set_PWM_Duty@duty_us+1
  1176     07FA  120A  158A  277F  120A  118A  	fcall	_Set_PWM_Duty
  1177     07FF                     l135:
  1178     07FF  0008               	return
  1179     0800                     __end_of_openDoor:
  1180                           
  1181                           	psect	text2
  1182     0C27                     __ptext2:	
  1183 ;; *************** function _init_interrupt *****************
  1184 ;; Defined at:
  1185 ;;		line 120 in file "main.c"
  1186 ;; Parameters:    Size  Location     Type
  1187 ;;		None
  1188 ;; Auto vars:     Size  Location     Type
  1189 ;;		None
  1190 ;; Return value:  Size  Location     Type
  1191 ;;                  1    wreg      void 
  1192 ;; Registers used:
  1193 ;;		wreg, status,2
  1194 ;; Tracked objects:
  1195 ;;		On entry : 0/0
  1196 ;;		On exit  : 0/0
  1197 ;;		Unchanged: 0/0
  1198 ;; Data sizes:     COMMON   BANK0   BANK1   BANK3   BANK2
  1199 ;;      Params:         0       0       0       0       0
  1200 ;;      Locals:         0       0       0       0       0
  1201 ;;      Temps:          0       0       0       0       0
  1202 ;;      Totals:         0       0       0       0       0
  1203 ;;Total ram usage:        0 bytes
  1204 ;; Hardware stack levels used: 1
  1205 ;; Hardware stack levels required when called: 6
  1206 ;; This function calls:
  1207 ;;		Nothing
  1208 ;; This function is called by:
  1209 ;;		_main
  1210 ;; This function uses a non-reentrant model
  1211 ;;
  1212                           
  1213     0C27                     _init_interrupt:	
  1214                           ;psect for function _init_interrupt
  1215                           
  1216     0C27                     l1967:	
  1217                           ;incstack = 0
  1218                           ; Regs used in _init_interrupt: [wreg+status,2]
  1219                           
  1220                           
  1221                           ;main.c: 121:     TMR0 = 0;
  1222     0C27  1283               	bcf	3,5	;RP0=0, select bank0
  1223     0C28  1303               	bcf	3,6	;RP1=0, select bank0
  1224     0C29  0181               	clrf	1	;volatile
  1225     0C2A                     l1969:
  1226                           
  1227                           ;main.c: 122:     OPTION_REG = 0x07;
  1228     0C2A  3007               	movlw	7
  1229     0C2B  1683               	bsf	3,5	;RP0=1, select bank1
  1230     0C2C  1303               	bcf	3,6	;RP1=0, select bank1
  1231     0C2D  0081               	movwf	1	;volatile
  1232     0C2E                     l1971:
  1233                           
  1234                           ;main.c: 123:     INTCON = INTCON | 0xA0;
  1235     0C2E  080B               	movf	11,w	;volatile
  1236     0C2F  38A0               	iorlw	160
  1237     0C30  008B               	movwf	11	;volatile
  1238     0C31                     l96:
  1239     0C31  0008               	return
  1240     0C32                     __end_of_init_interrupt:
  1241                           
  1242                           	psect	text3
  1243     0CDB                     __ptext3:	
  1244 ;; *************** function _delay_ms *****************
  1245 ;; Defined at:
  1246 ;;		line 338 in file "main.c"
  1247 ;; Parameters:    Size  Location     Type
  1248 ;;  x               2   27[BANK0 ] unsigned int 
  1249 ;; Auto vars:     Size  Location     Type
  1250 ;;  i               2   29[BANK0 ] unsigned int 
  1251 ;;  j               2    0        unsigned int 
  1252 ;; Return value:  Size  Location     Type
  1253 ;;                  1    wreg      void 
  1254 ;; Registers used:
  1255 ;;		wreg, status,2, status,0, pclath, cstack
  1256 ;; Tracked objects:
  1257 ;;		On entry : 0/0
  1258 ;;		On exit  : 0/0
  1259 ;;		Unchanged: 0/0
  1260 ;; Data sizes:     COMMON   BANK0   BANK1   BANK3   BANK2
  1261 ;;      Params:         0       2       0       0       0
  1262 ;;      Locals:         0       2       0       0       0
  1263 ;;      Temps:          0       0       0       0       0
  1264 ;;      Totals:         0       4       0       0       0
  1265 ;;Total ram usage:        4 bytes
  1266 ;; Hardware stack levels used: 1
  1267 ;; Hardware stack levels required when called: 7
  1268 ;; This function calls:
  1269 ;;		_delay_us
  1270 ;; This function is called by:
  1271 ;;		_main
  1272 ;; This function uses a non-reentrant model
  1273 ;;
  1274                           
  1275     0CDB                     _delay_ms:	
  1276                           ;psect for function _delay_ms
  1277                           
  1278     0CDB                     l1959:	
  1279                           ;incstack = 0
  1280                           ; Regs used in _delay_ms: [wreg+status,2+status,0+pclath+cstack]
  1281                           
  1282                           
  1283                           ;main.c: 339:     unsigned int i, j;;main.c: 340:     for (i = 0; i < x; i++) {
  1284     0CDB  1283               	bcf	3,5	;RP0=0, select bank0
  1285     0CDC  1303               	bcf	3,6	;RP1=0, select bank0
  1286     0CDD  01BD               	clrf	delay_ms@i
  1287     0CDE  01BE               	clrf	delay_ms@i+1
  1288     0CDF  2CF1               	goto	l1965
  1289     0CE0                     l1961:
  1290                           
  1291                           ;main.c: 341:         delay_us(1000);
  1292     0CE0  30E8               	movlw	232
  1293     0CE1  00B7               	movwf	delay_us@x
  1294     0CE2  3003               	movlw	3
  1295     0CE3  00B8               	movwf	delay_us@x+1
  1296     0CE4  120A  158A  24A4  120A  158A  	fcall	_delay_us
  1297     0CE9                     l1963:
  1298                           
  1299                           ;main.c: 342:     }
  1300     0CE9  3001               	movlw	1
  1301     0CEA  1283               	bcf	3,5	;RP0=0, select bank0
  1302     0CEB  1303               	bcf	3,6	;RP1=0, select bank0
  1303     0CEC  07BD               	addwf	delay_ms@i,f
  1304     0CED  1803               	skipnc
  1305     0CEE  0ABE               	incf	delay_ms@i+1,f
  1306     0CEF  3000               	movlw	0
  1307     0CF0  07BE               	addwf	delay_ms@i+1,f
  1308     0CF1                     l1965:
  1309     0CF1  083C               	movf	delay_ms@x+1,w
  1310     0CF2  023E               	subwf	delay_ms@i+1,w
  1311     0CF3  1D03               	skipz
  1312     0CF4  2CF7               	goto	u2515
  1313     0CF5  083B               	movf	delay_ms@x,w
  1314     0CF6  023D               	subwf	delay_ms@i,w
  1315     0CF7                     u2515:
  1316     0CF7  1C03               	skipc
  1317     0CF8  2CFA               	goto	u2511
  1318     0CF9  2CFB               	goto	u2510
  1319     0CFA                     u2511:
  1320     0CFA  2CE0               	goto	l1961
  1321     0CFB                     u2510:
  1322     0CFB                     l183:
  1323     0CFB  0008               	return
  1324     0CFC                     __end_of_delay_ms:
  1325                           
  1326                           	psect	text4
  1327     0C62                     __ptext4:	
  1328 ;; *************** function _closeDoor *****************
  1329 ;; Defined at:
  1330 ;;		line 259 in file "main.c"
  1331 ;; Parameters:    Size  Location     Type
  1332 ;;		None
  1333 ;; Auto vars:     Size  Location     Type
  1334 ;;		None
  1335 ;; Return value:  Size  Location     Type
  1336 ;;                  1    wreg      void 
  1337 ;; Registers used:
  1338 ;;		wreg, status,2, status,0, pclath, cstack
  1339 ;; Tracked objects:
  1340 ;;		On entry : 0/0
  1341 ;;		On exit  : 0/0
  1342 ;;		Unchanged: 0/0
  1343 ;; Data sizes:     COMMON   BANK0   BANK1   BANK3   BANK2
  1344 ;;      Params:         0       0       0       0       0
  1345 ;;      Locals:         0       0       0       0       0
  1346 ;;      Temps:          0       0       0       0       0
  1347 ;;      Totals:         0       0       0       0       0
  1348 ;;Total ram usage:        0 bytes
  1349 ;; Hardware stack levels used: 1
  1350 ;; Hardware stack levels required when called: 8
  1351 ;; This function calls:
  1352 ;;		_Set_PWM_Duty
  1353 ;; This function is called by:
  1354 ;;		_main
  1355 ;; This function uses a non-reentrant model
  1356 ;;
  1357                           
  1358     0C62                     _closeDoor:	
  1359                           ;psect for function _closeDoor
  1360                           
  1361     0C62                     l2295:	
  1362                           ;incstack = 0
  1363 ;; hardware stack exceeded
  1364                           ; Regs used in _closeDoor: [wreg+status,2+status,0+pclath+cstack]
  1365                           
  1366                           
  1367                           ;main.c: 260:     Set_PWM_Duty(319);
  1368     0C62  303F               	movlw	63
  1369     0C63  1283               	bcf	3,5	;RP0=0, select bank0
  1370     0C64  1303               	bcf	3,6	;RP1=0, select bank0
  1371     0C65  00D3               	movwf	Set_PWM_Duty@duty_us
  1372     0C66  3001               	movlw	1
  1373     0C67  00D4               	movwf	Set_PWM_Duty@duty_us+1
  1374     0C68  120A  158A  277F  120A  158A  	fcall	_Set_PWM_Duty
  1375     0C6D                     l138:
  1376     0C6D  0008               	return
  1377     0C6E                     __end_of_closeDoor:
  1378                           
  1379                           	psect	text5
  1380     0F7F                     __ptext5:	
  1381 ;; *************** function _Set_PWM_Duty *****************
  1382 ;; Defined at:
  1383 ;;		line 240 in file "main.c"
  1384 ;; Parameters:    Size  Location     Type
  1385 ;;  duty_us         2   51[BANK0 ] unsigned int 
  1386 ;; Auto vars:     Size  Location     Type
  1387 ;;  duty            2    0[BANK1 ] unsigned int 
  1388 ;; Return value:  Size  Location     Type
  1389 ;;                  1    wreg      void 
  1390 ;; Registers used:
  1391 ;;		wreg, status,2, status,0, pclath, cstack
  1392 ;; Tracked objects:
  1393 ;;		On entry : 0/0
  1394 ;;		On exit  : 0/0
  1395 ;;		Unchanged: 0/0
  1396 ;; Data sizes:     COMMON   BANK0   BANK1   BANK3   BANK2
  1397 ;;      Params:         0       2       0       0       0
  1398 ;;      Locals:         0       0       2       0       0
  1399 ;;      Temps:          0       2       0       0       0
  1400 ;;      Totals:         0       4       2       0       0
  1401 ;;Total ram usage:        6 bytes
  1402 ;; Hardware stack levels used: 1
  1403 ;; Hardware stack levels required when called: 7
  1404 ;; This function calls:
  1405 ;;		___aldiv
  1406 ;;		___lmul
  1407 ;;		___wmul
  1408 ;; This function is called by:
  1409 ;;		_openDoor
  1410 ;;		_closeDoor
  1411 ;; This function uses a non-reentrant model
  1412 ;;
  1413                           
  1414     0F7F                     _Set_PWM_Duty:	
  1415                           ;psect for function _Set_PWM_Duty
  1416                           
  1417     0F7F                     l2249:	
  1418                           ;incstack = 0
  1419 ;; hardware stack exceeded
  1420                           ; Regs used in _Set_PWM_Duty: [wreg+status,2+status,0+pclath+cstack]
  1421                           
  1422                           
  1423                           ;main.c: 242:     unsigned int duty = (duty_us * (8000000 / 4)) / (16 * (PR2 + 1) * 1000
      +                          );
  1424     0F7F  30E8               	movlw	232
  1425     0F80  1283               	bcf	3,5	;RP0=0, select bank0
  1426     0F81  1303               	bcf	3,6	;RP1=0, select bank0
  1427     0F82  00B9               	movwf	___wmul@multiplicand
  1428     0F83  3003               	movlw	3
  1429     0F84  00BA               	movwf	___wmul@multiplicand+1
  1430     0F85  1683               	bsf	3,5	;RP0=1, select bank1
  1431     0F86  1303               	bcf	3,6	;RP1=0, select bank1
  1432     0F87  0812               	movf	18,w	;volatile
  1433     0F88  1283               	bcf	3,5	;RP0=0, select bank0
  1434     0F89  1303               	bcf	3,6	;RP1=0, select bank0
  1435     0F8A  00D5               	movwf	??_Set_PWM_Duty
  1436     0F8B  01D6               	clrf	??_Set_PWM_Duty+1
  1437     0F8C  0ED5               	swapf	??_Set_PWM_Duty,f
  1438     0F8D  0ED6               	swapf	??_Set_PWM_Duty+1,f
  1439     0F8E  30F0               	movlw	240
  1440     0F8F  05D6               	andwf	??_Set_PWM_Duty+1,f
  1441     0F90  0855               	movf	??_Set_PWM_Duty,w
  1442     0F91  390F               	andlw	15
  1443     0F92  04D6               	iorwf	??_Set_PWM_Duty+1,f
  1444     0F93  30F0               	movlw	240
  1445     0F94  05D5               	andwf	??_Set_PWM_Duty,f
  1446     0F95  0855               	movf	??_Set_PWM_Duty,w
  1447     0F96  3E10               	addlw	16
  1448     0F97  00B7               	movwf	___wmul@multiplier
  1449     0F98  0856               	movf	??_Set_PWM_Duty+1,w
  1450     0F99  1803               	skipnc
  1451     0F9A  3E01               	addlw	1
  1452     0F9B  3E00               	addlw	0
  1453     0F9C  00B8               	movwf	___wmul@multiplier+1
  1454     0F9D  120A  158A  2521  120A  158A  	fcall	___wmul
  1455     0FA2  1283               	bcf	3,5	;RP0=0, select bank0
  1456     0FA3  1303               	bcf	3,6	;RP1=0, select bank0
  1457     0FA4  0837               	movf	?___wmul,w
  1458     0FA5  00C4               	movwf	___aldiv@divisor
  1459     0FA6  0838               	movf	?___wmul+1,w
  1460     0FA7  00C5               	movwf	___aldiv@divisor+1
  1461     0FA8  3000               	movlw	0
  1462     0FA9  1BC5               	btfsc	___aldiv@divisor+1,7
  1463     0FAA  30FF               	movlw	255
  1464     0FAB  00C6               	movwf	___aldiv@divisor+2
  1465     0FAC  00C7               	movwf	___aldiv@divisor+3
  1466     0FAD  0853               	movf	Set_PWM_Duty@duty_us,w
  1467     0FAE  00B7               	movwf	___lmul@multiplier
  1468     0FAF  0854               	movf	Set_PWM_Duty@duty_us+1,w
  1469     0FB0  00B8               	movwf	___lmul@multiplier+1
  1470     0FB1  01B9               	clrf	___lmul@multiplier+2
  1471     0FB2  01BA               	clrf	___lmul@multiplier+3
  1472     0FB3  3000               	movlw	0
  1473     0FB4  00BE               	movwf	___lmul@multiplicand+3
  1474     0FB5  301E               	movlw	30
  1475     0FB6  00BD               	movwf	___lmul@multiplicand+2
  1476     0FB7  3084               	movlw	132
  1477     0FB8  00BC               	movwf	___lmul@multiplicand+1
  1478     0FB9  3080               	movlw	128
  1479     0FBA  00BB               	movwf	___lmul@multiplicand
  1480     0FBB  120A  158A  262F  120A  158A  	fcall	___lmul
  1481     0FC0  1283               	bcf	3,5	;RP0=0, select bank0
  1482     0FC1  1303               	bcf	3,6	;RP1=0, select bank0
  1483     0FC2  083A               	movf	?___lmul+3,w
  1484     0FC3  00CB               	movwf	___aldiv@dividend+3
  1485     0FC4  0839               	movf	?___lmul+2,w
  1486     0FC5  00CA               	movwf	___aldiv@dividend+2
  1487     0FC6  0838               	movf	?___lmul+1,w
  1488     0FC7  00C9               	movwf	___aldiv@dividend+1
  1489     0FC8  0837               	movf	?___lmul,w
  1490     0FC9  00C8               	movwf	___aldiv@dividend
  1491     0FCA  120A  118A  25BB  120A  158A  	fcall	___aldiv
  1492     0FCF  1283               	bcf	3,5	;RP0=0, select bank0
  1493     0FD0  1303               	bcf	3,6	;RP1=0, select bank0
  1494     0FD1  0845               	movf	?___aldiv+1,w
  1495     0FD2  1683               	bsf	3,5	;RP0=1, select bank1
  1496     0FD3  1303               	bcf	3,6	;RP1=0, select bank1
  1497     0FD4  00A1               	movwf	(Set_PWM_Duty@duty+1)^(0+128)
  1498     0FD5  1283               	bcf	3,5	;RP0=0, select bank0
  1499     0FD6  1303               	bcf	3,6	;RP1=0, select bank0
  1500     0FD7  0844               	movf	?___aldiv,w
  1501     0FD8  1683               	bsf	3,5	;RP0=1, select bank1
  1502     0FD9  1303               	bcf	3,6	;RP1=0, select bank1
  1503     0FDA  00A0               	movwf	Set_PWM_Duty@duty^(0+128)
  1504     0FDB                     l2251:
  1505                           
  1506                           ;main.c: 245:     CCPR1L = duty >> 2;
  1507     0FDB  0821               	movf	(Set_PWM_Duty@duty+1)^(0+128),w
  1508     0FDC  1283               	bcf	3,5	;RP0=0, select bank0
  1509     0FDD  1303               	bcf	3,6	;RP1=0, select bank0
  1510     0FDE  00D6               	movwf	??_Set_PWM_Duty+1
  1511     0FDF  1683               	bsf	3,5	;RP0=1, select bank1
  1512     0FE0  1303               	bcf	3,6	;RP1=0, select bank1
  1513     0FE1  0820               	movf	Set_PWM_Duty@duty^(0+128),w
  1514     0FE2  1283               	bcf	3,5	;RP0=0, select bank0
  1515     0FE3  1303               	bcf	3,6	;RP1=0, select bank0
  1516     0FE4  00D5               	movwf	??_Set_PWM_Duty
  1517     0FE5  1003               	clrc
  1518     0FE6  0CD6               	rrf	??_Set_PWM_Duty+1,f
  1519     0FE7  0CD5               	rrf	??_Set_PWM_Duty,f
  1520     0FE8  1003               	clrc
  1521     0FE9  0CD6               	rrf	??_Set_PWM_Duty+1,f
  1522     0FEA  0CD5               	rrf	??_Set_PWM_Duty,f
  1523     0FEB  0855               	movf	??_Set_PWM_Duty,w
  1524     0FEC  0095               	movwf	21	;volatile
  1525     0FED                     l2253:
  1526                           
  1527                           ;main.c: 248:     CCP1CON &= 0xCF;
  1528     0FED  30CF               	movlw	207
  1529     0FEE  0597               	andwf	23,f	;volatile
  1530     0FEF                     l2255:
  1531                           
  1532                           ;main.c: 251:     CCP1CON |= ((duty & 0x03) << 4);
  1533     0FEF  1683               	bsf	3,5	;RP0=1, select bank1
  1534     0FF0  1303               	bcf	3,6	;RP1=0, select bank1
  1535     0FF1  0820               	movf	Set_PWM_Duty@duty^(0+128),w	;volatile
  1536     0FF2  3903               	andlw	3
  1537     0FF3  1283               	bcf	3,5	;RP0=0, select bank0
  1538     0FF4  1303               	bcf	3,6	;RP1=0, select bank0
  1539     0FF5  00D5               	movwf	??_Set_PWM_Duty
  1540     0FF6  3003               	movlw	3
  1541     0FF7                     u2975:
  1542     0FF7  1003               	clrc
  1543     0FF8  0DD5               	rlf	??_Set_PWM_Duty,f
  1544     0FF9  3EFF               	addlw	-1
  1545     0FFA  1D03               	skipz
  1546     0FFB  2FF7               	goto	u2975
  1547     0FFC  1003               	clrc
  1548     0FFD  0D55               	rlf	??_Set_PWM_Duty,w
  1549     0FFE  0497               	iorwf	23,f	;volatile
  1550     0FFF                     l132:
  1551     0FFF  0008               	return
  1552     1000                     __end_of_Set_PWM_Duty:
  1553                           
  1554                           	psect	text6
  1555     0D21                     __ptext6:	
  1556 ;; *************** function ___wmul *****************
  1557 ;; Defined at:
  1558 ;;		line 15 in file "C:\Program Files\Microchip\xc8\v3.00\pic\sources\c99\common\Umul16.c"
  1559 ;; Parameters:    Size  Location     Type
  1560 ;;  multiplier      2   23[BANK0 ] unsigned int 
  1561 ;;  multiplicand    2   25[BANK0 ] unsigned int 
  1562 ;; Auto vars:     Size  Location     Type
  1563 ;;  product         2   27[BANK0 ] unsigned int 
  1564 ;; Return value:  Size  Location     Type
  1565 ;;                  2   23[BANK0 ] unsigned int 
  1566 ;; Registers used:
  1567 ;;		wreg, status,2, status,0
  1568 ;; Tracked objects:
  1569 ;;		On entry : 0/0
  1570 ;;		On exit  : 0/0
  1571 ;;		Unchanged: 0/0
  1572 ;; Data sizes:     COMMON   BANK0   BANK1   BANK3   BANK2
  1573 ;;      Params:         0       4       0       0       0
  1574 ;;      Locals:         0       2       0       0       0
  1575 ;;      Temps:          0       0       0       0       0
  1576 ;;      Totals:         0       6       0       0       0
  1577 ;;Total ram usage:        6 bytes
  1578 ;; Hardware stack levels used: 1
  1579 ;; Hardware stack levels required when called: 6
  1580 ;; This function calls:
  1581 ;;		Nothing
  1582 ;; This function is called by:
  1583 ;;		_Set_PWM_Duty
  1584 ;; This function uses a non-reentrant model
  1585 ;;
  1586                           
  1587     0D21                     ___wmul:	
  1588                           ;psect for function ___wmul
  1589                           
  1590     0D21                     l2181:	
  1591                           ;incstack = 0
  1592 ;; hardware stack exceeded
  1593                           ; Regs used in ___wmul: [wreg+status,2+status,0]
  1594                           
  1595     0D21  1283               	bcf	3,5	;RP0=0, select bank0
  1596     0D22  1303               	bcf	3,6	;RP1=0, select bank0
  1597     0D23  01BB               	clrf	___wmul@product
  1598     0D24  01BC               	clrf	___wmul@product+1
  1599     0D25                     l2183:
  1600     0D25  1C37               	btfss	___wmul@multiplier,0
  1601     0D26  2D28               	goto	u2781
  1602     0D27  2D29               	goto	u2780
  1603     0D28                     u2781:
  1604     0D28  2D2F               	goto	l275
  1605     0D29                     u2780:
  1606     0D29                     l2185:
  1607     0D29  0839               	movf	___wmul@multiplicand,w
  1608     0D2A  07BB               	addwf	___wmul@product,f
  1609     0D2B  1803               	skipnc
  1610     0D2C  0ABC               	incf	___wmul@product+1,f
  1611     0D2D  083A               	movf	___wmul@multiplicand+1,w
  1612     0D2E  07BC               	addwf	___wmul@product+1,f
  1613     0D2F                     l275:
  1614     0D2F  3001               	movlw	1
  1615     0D30                     u2795:
  1616     0D30  1003               	clrc
  1617     0D31  0DB9               	rlf	___wmul@multiplicand,f
  1618     0D32  0DBA               	rlf	___wmul@multiplicand+1,f
  1619     0D33  3EFF               	addlw	-1
  1620     0D34  1D03               	skipz
  1621     0D35  2D30               	goto	u2795
  1622     0D36                     l2187:
  1623     0D36  3001               	movlw	1
  1624     0D37                     u2805:
  1625     0D37  1003               	clrc
  1626     0D38  0CB8               	rrf	___wmul@multiplier+1,f
  1627     0D39  0CB7               	rrf	___wmul@multiplier,f
  1628     0D3A  3EFF               	addlw	-1
  1629     0D3B  1D03               	skipz
  1630     0D3C  2D37               	goto	u2805
  1631     0D3D                     l2189:
  1632     0D3D  0837               	movf	___wmul@multiplier,w
  1633     0D3E  0438               	iorwf	___wmul@multiplier+1,w
  1634     0D3F  1D03               	btfss	3,2
  1635     0D40  2D42               	goto	u2811
  1636     0D41  2D43               	goto	u2810
  1637     0D42                     u2811:
  1638     0D42  2D25               	goto	l2183
  1639     0D43                     u2810:
  1640     0D43                     l2191:
  1641     0D43  083C               	movf	___wmul@product+1,w
  1642     0D44  00B8               	movwf	?___wmul+1
  1643     0D45  083B               	movf	___wmul@product,w
  1644     0D46  00B7               	movwf	?___wmul
  1645     0D47                     l277:
  1646     0D47  0008               	return
  1647     0D48                     __end_of___wmul:
  1648                           
  1649                           	psect	text7
  1650     0E2F                     __ptext7:	
  1651 ;; *************** function ___lmul *****************
  1652 ;; Defined at:
  1653 ;;		line 15 in file "C:\Program Files\Microchip\xc8\v3.00\pic\sources\c99\common\Umul32.c"
  1654 ;; Parameters:    Size  Location     Type
  1655 ;;  multiplier      4   23[BANK0 ] unsigned long 
  1656 ;;  multiplicand    4   27[BANK0 ] unsigned long 
  1657 ;; Auto vars:     Size  Location     Type
  1658 ;;  product         4   32[BANK0 ] unsigned long 
  1659 ;; Return value:  Size  Location     Type
  1660 ;;                  4   23[BANK0 ] unsigned long 
  1661 ;; Registers used:
  1662 ;;		wreg, status,2, status,0
  1663 ;; Tracked objects:
  1664 ;;		On entry : 0/0
  1665 ;;		On exit  : 0/0
  1666 ;;		Unchanged: 0/0
  1667 ;; Data sizes:     COMMON   BANK0   BANK1   BANK3   BANK2
  1668 ;;      Params:         0       8       0       0       0
  1669 ;;      Locals:         0       4       0       0       0
  1670 ;;      Temps:          0       1       0       0       0
  1671 ;;      Totals:         0      13       0       0       0
  1672 ;;Total ram usage:       13 bytes
  1673 ;; Hardware stack levels used: 1
  1674 ;; Hardware stack levels required when called: 6
  1675 ;; This function calls:
  1676 ;;		Nothing
  1677 ;; This function is called by:
  1678 ;;		_Set_PWM_Duty
  1679 ;; This function uses a non-reentrant model
  1680 ;;
  1681                           
  1682     0E2F                     ___lmul:	
  1683                           ;psect for function ___lmul
  1684                           
  1685     0E2F                     l2195:	
  1686                           ;incstack = 0
  1687 ;; hardware stack exceeded
  1688                           ; Regs used in ___lmul: [wreg+status,2+status,0]
  1689                           
  1690     0E2F  3000               	movlw	0
  1691     0E30  1283               	bcf	3,5	;RP0=0, select bank0
  1692     0E31  1303               	bcf	3,6	;RP1=0, select bank0
  1693     0E32  00C3               	movwf	___lmul@product+3
  1694     0E33  3000               	movlw	0
  1695     0E34  00C2               	movwf	___lmul@product+2
  1696     0E35  3000               	movlw	0
  1697     0E36  00C1               	movwf	___lmul@product+1
  1698     0E37  3000               	movlw	0
  1699     0E38  00C0               	movwf	___lmul@product
  1700     0E39                     l2197:
  1701     0E39  1C37               	btfss	___lmul@multiplier,0
  1702     0E3A  2E3C               	goto	u2821
  1703     0E3B  2E3D               	goto	u2820
  1704     0E3C                     u2821:
  1705     0E3C  2E54               	goto	l2201
  1706     0E3D                     u2820:
  1707     0E3D                     l2199:
  1708     0E3D  083B               	movf	___lmul@multiplicand,w
  1709     0E3E  07C0               	addwf	___lmul@product,f
  1710     0E3F  083C               	movf	___lmul@multiplicand+1,w
  1711     0E40  1103               	clrz
  1712     0E41  1803               	skipnc
  1713     0E42  3E01               	addlw	1
  1714     0E43  1903               	skipnz
  1715     0E44  2E46               	goto	u2831
  1716     0E45  07C1               	addwf	___lmul@product+1,f
  1717     0E46                     u2831:
  1718     0E46  083D               	movf	___lmul@multiplicand+2,w
  1719     0E47  1103               	clrz
  1720     0E48  1803               	skipnc
  1721     0E49  3E01               	addlw	1
  1722     0E4A  1903               	skipnz
  1723     0E4B  2E4D               	goto	u2832
  1724     0E4C  07C2               	addwf	___lmul@product+2,f
  1725     0E4D                     u2832:
  1726     0E4D  083E               	movf	___lmul@multiplicand+3,w
  1727     0E4E  1103               	clrz
  1728     0E4F  1803               	skipnc
  1729     0E50  3E01               	addlw	1
  1730     0E51  1903               	skipnz
  1731     0E52  2E54               	goto	u2833
  1732     0E53  07C3               	addwf	___lmul@product+3,f
  1733     0E54                     u2833:
  1734     0E54                     l2201:
  1735     0E54  3001               	movlw	1
  1736     0E55  00BF               	movwf	??___lmul
  1737     0E56                     u2845:
  1738     0E56  1003               	clrc
  1739     0E57  0DBB               	rlf	___lmul@multiplicand,f
  1740     0E58  0DBC               	rlf	___lmul@multiplicand+1,f
  1741     0E59  0DBD               	rlf	___lmul@multiplicand+2,f
  1742     0E5A  0DBE               	rlf	___lmul@multiplicand+3,f
  1743     0E5B  0BBF               	decfsz	??___lmul,f
  1744     0E5C  2E56               	goto	u2845
  1745     0E5D                     l2203:
  1746     0E5D  3001               	movlw	1
  1747     0E5E                     u2855:
  1748     0E5E  1003               	clrc
  1749     0E5F  0CBA               	rrf	___lmul@multiplier+3,f
  1750     0E60  0CB9               	rrf	___lmul@multiplier+2,f
  1751     0E61  0CB8               	rrf	___lmul@multiplier+1,f
  1752     0E62  0CB7               	rrf	___lmul@multiplier,f
  1753     0E63  3EFF               	addlw	-1
  1754     0E64  1D03               	skipz
  1755     0E65  2E5E               	goto	u2855
  1756     0E66  083A               	movf	___lmul@multiplier+3,w
  1757     0E67  0439               	iorwf	___lmul@multiplier+2,w
  1758     0E68  0438               	iorwf	___lmul@multiplier+1,w
  1759     0E69  0437               	iorwf	___lmul@multiplier,w
  1760     0E6A  1D03               	skipz
  1761     0E6B  2E6D               	goto	u2861
  1762     0E6C  2E6E               	goto	u2860
  1763     0E6D                     u2861:
  1764     0E6D  2E39               	goto	l2197
  1765     0E6E                     u2860:
  1766     0E6E                     l2205:
  1767     0E6E  0843               	movf	___lmul@product+3,w
  1768     0E6F  00BA               	movwf	?___lmul+3
  1769     0E70  0842               	movf	___lmul@product+2,w
  1770     0E71  00B9               	movwf	?___lmul+2
  1771     0E72  0841               	movf	___lmul@product+1,w
  1772     0E73  00B8               	movwf	?___lmul+1
  1773     0E74  0840               	movf	___lmul@product,w
  1774     0E75  00B7               	movwf	?___lmul
  1775     0E76                     l289:
  1776     0E76  0008               	return
  1777     0E77                     __end_of___lmul:
  1778                           
  1779                           	psect	text8
  1780     05BB                     __ptext8:	
  1781 ;; *************** function ___aldiv *****************
  1782 ;; Defined at:
  1783 ;;		line 5 in file "C:\Program Files\Microchip\xc8\v3.00\pic\sources\c99\common\aldiv.c"
  1784 ;; Parameters:    Size  Location     Type
  1785 ;;  divisor         4   36[BANK0 ] long 
  1786 ;;  dividend        4   40[BANK0 ] long 
  1787 ;; Auto vars:     Size  Location     Type
  1788 ;;  quotient        4   47[BANK0 ] long 
  1789 ;;  sign            1   46[BANK0 ] unsigned char 
  1790 ;;  counter         1   45[BANK0 ] unsigned char 
  1791 ;; Return value:  Size  Location     Type
  1792 ;;                  4   36[BANK0 ] long 
  1793 ;; Registers used:
  1794 ;;		wreg, status,2, status,0
  1795 ;; Tracked objects:
  1796 ;;		On entry : 0/0
  1797 ;;		On exit  : 0/0
  1798 ;;		Unchanged: 0/0
  1799 ;; Data sizes:     COMMON   BANK0   BANK1   BANK3   BANK2
  1800 ;;      Params:         0       8       0       0       0
  1801 ;;      Locals:         0       6       0       0       0
  1802 ;;      Temps:          0       1       0       0       0
  1803 ;;      Totals:         0      15       0       0       0
  1804 ;;Total ram usage:       15 bytes
  1805 ;; Hardware stack levels used: 1
  1806 ;; Hardware stack levels required when called: 6
  1807 ;; This function calls:
  1808 ;;		Nothing
  1809 ;; This function is called by:
  1810 ;;		_Set_PWM_Duty
  1811 ;; This function uses a non-reentrant model
  1812 ;;
  1813                           
  1814     05BB                     ___aldiv:	
  1815                           ;psect for function ___aldiv
  1816                           
  1817     05BB                     l2209:	
  1818                           ;incstack = 0
  1819 ;; hardware stack exceeded
  1820                           ; Regs used in ___aldiv: [wreg+status,2+status,0]
  1821                           
  1822     05BB  1283               	bcf	3,5	;RP0=0, select bank0
  1823     05BC  1303               	bcf	3,6	;RP1=0, select bank0
  1824     05BD  01CE               	clrf	___aldiv@sign
  1825     05BE                     l2211:
  1826     05BE  1FC7               	btfss	___aldiv@divisor+3,7
  1827     05BF  2DC1               	goto	u2871
  1828     05C0  2DC2               	goto	u2870
  1829     05C1                     u2871:
  1830     05C1  2DCF               	goto	l340
  1831     05C2                     u2870:
  1832     05C2                     l2213:
  1833     05C2  09C4               	comf	___aldiv@divisor,f
  1834     05C3  09C5               	comf	___aldiv@divisor+1,f
  1835     05C4  09C6               	comf	___aldiv@divisor+2,f
  1836     05C5  09C7               	comf	___aldiv@divisor+3,f
  1837     05C6  0AC4               	incf	___aldiv@divisor,f
  1838     05C7  1903               	skipnz
  1839     05C8  0AC5               	incf	___aldiv@divisor+1,f
  1840     05C9  1903               	skipnz
  1841     05CA  0AC6               	incf	___aldiv@divisor+2,f
  1842     05CB  1903               	skipnz
  1843     05CC  0AC7               	incf	___aldiv@divisor+3,f
  1844     05CD  3001               	movlw	1
  1845     05CE  00CE               	movwf	___aldiv@sign
  1846     05CF                     l340:
  1847     05CF  1FCB               	btfss	___aldiv@dividend+3,7
  1848     05D0  2DD2               	goto	u2881
  1849     05D1  2DD3               	goto	u2880
  1850     05D2                     u2881:
  1851     05D2  2DE0               	goto	l2219
  1852     05D3                     u2880:
  1853     05D3                     l2215:
  1854     05D3  09C8               	comf	___aldiv@dividend,f
  1855     05D4  09C9               	comf	___aldiv@dividend+1,f
  1856     05D5  09CA               	comf	___aldiv@dividend+2,f
  1857     05D6  09CB               	comf	___aldiv@dividend+3,f
  1858     05D7  0AC8               	incf	___aldiv@dividend,f
  1859     05D8  1903               	skipnz
  1860     05D9  0AC9               	incf	___aldiv@dividend+1,f
  1861     05DA  1903               	skipnz
  1862     05DB  0ACA               	incf	___aldiv@dividend+2,f
  1863     05DC  1903               	skipnz
  1864     05DD  0ACB               	incf	___aldiv@dividend+3,f
  1865     05DE                     l2217:
  1866     05DE  3001               	movlw	1
  1867     05DF  06CE               	xorwf	___aldiv@sign,f
  1868     05E0                     l2219:
  1869     05E0  3000               	movlw	0
  1870     05E1  00D2               	movwf	___aldiv@quotient+3
  1871     05E2  3000               	movlw	0
  1872     05E3  00D1               	movwf	___aldiv@quotient+2
  1873     05E4  3000               	movlw	0
  1874     05E5  00D0               	movwf	___aldiv@quotient+1
  1875     05E6  3000               	movlw	0
  1876     05E7  00CF               	movwf	___aldiv@quotient
  1877     05E8                     l2221:
  1878     05E8  0847               	movf	___aldiv@divisor+3,w
  1879     05E9  0446               	iorwf	___aldiv@divisor+2,w
  1880     05EA  0445               	iorwf	___aldiv@divisor+1,w
  1881     05EB  0444               	iorwf	___aldiv@divisor,w
  1882     05EC  1903               	skipnz
  1883     05ED  2DEF               	goto	u2891
  1884     05EE  2DF0               	goto	u2890
  1885     05EF                     u2891:
  1886     05EF  2E3B               	goto	l2241
  1887     05F0                     u2890:
  1888     05F0                     l2223:
  1889     05F0  3001               	movlw	1
  1890     05F1  00CD               	movwf	___aldiv@counter
  1891     05F2  2DFE               	goto	l2227
  1892     05F3                     l2225:
  1893     05F3  3001               	movlw	1
  1894     05F4  00CC               	movwf	??___aldiv
  1895     05F5                     u2905:
  1896     05F5  1003               	clrc
  1897     05F6  0DC4               	rlf	___aldiv@divisor,f
  1898     05F7  0DC5               	rlf	___aldiv@divisor+1,f
  1899     05F8  0DC6               	rlf	___aldiv@divisor+2,f
  1900     05F9  0DC7               	rlf	___aldiv@divisor+3,f
  1901     05FA  0BCC               	decfsz	??___aldiv,f
  1902     05FB  2DF5               	goto	u2905
  1903     05FC  3001               	movlw	1
  1904     05FD  07CD               	addwf	___aldiv@counter,f
  1905     05FE                     l2227:
  1906     05FE  1FC7               	btfss	___aldiv@divisor+3,7
  1907     05FF  2E01               	goto	u2911
  1908     0600  2E02               	goto	u2910
  1909     0601                     u2911:
  1910     0601  2DF3               	goto	l2225
  1911     0602                     u2910:
  1912     0602                     l2229:
  1913     0602  3001               	movlw	1
  1914     0603  00CC               	movwf	??___aldiv
  1915     0604                     u2925:
  1916     0604  1003               	clrc
  1917     0605  0DCF               	rlf	___aldiv@quotient,f
  1918     0606  0DD0               	rlf	___aldiv@quotient+1,f
  1919     0607  0DD1               	rlf	___aldiv@quotient+2,f
  1920     0608  0DD2               	rlf	___aldiv@quotient+3,f
  1921     0609  0BCC               	decfsz	??___aldiv,f
  1922     060A  2E04               	goto	u2925
  1923     060B                     l2231:
  1924     060B  0847               	movf	___aldiv@divisor+3,w
  1925     060C  024B               	subwf	___aldiv@dividend+3,w
  1926     060D  1D03               	skipz
  1927     060E  2E19               	goto	u2935
  1928     060F  0846               	movf	___aldiv@divisor+2,w
  1929     0610  024A               	subwf	___aldiv@dividend+2,w
  1930     0611  1D03               	skipz
  1931     0612  2E19               	goto	u2935
  1932     0613  0845               	movf	___aldiv@divisor+1,w
  1933     0614  0249               	subwf	___aldiv@dividend+1,w
  1934     0615  1D03               	skipz
  1935     0616  2E19               	goto	u2935
  1936     0617  0844               	movf	___aldiv@divisor,w
  1937     0618  0248               	subwf	___aldiv@dividend,w
  1938     0619                     u2935:
  1939     0619  1C03               	skipc
  1940     061A  2E1C               	goto	u2931
  1941     061B  2E1D               	goto	u2930
  1942     061C                     u2931:
  1943     061C  2E2C               	goto	l2237
  1944     061D                     u2930:
  1945     061D                     l2233:
  1946     061D  0844               	movf	___aldiv@divisor,w
  1947     061E  02C8               	subwf	___aldiv@dividend,f
  1948     061F  0845               	movf	___aldiv@divisor+1,w
  1949     0620  1C03               	skipc
  1950     0621  0F45               	incfsz	___aldiv@divisor+1,w
  1951     0622  02C9               	subwf	___aldiv@dividend+1,f
  1952     0623  0846               	movf	___aldiv@divisor+2,w
  1953     0624  1C03               	skipc
  1954     0625  0F46               	incfsz	___aldiv@divisor+2,w
  1955     0626  02CA               	subwf	___aldiv@dividend+2,f
  1956     0627  0847               	movf	___aldiv@divisor+3,w
  1957     0628  1C03               	skipc
  1958     0629  0F47               	incfsz	___aldiv@divisor+3,w
  1959     062A  02CB               	subwf	___aldiv@dividend+3,f
  1960     062B                     l2235:
  1961     062B  144F               	bsf	___aldiv@quotient,0
  1962     062C                     l2237:
  1963     062C  3001               	movlw	1
  1964     062D                     u2945:
  1965     062D  1003               	clrc
  1966     062E  0CC7               	rrf	___aldiv@divisor+3,f
  1967     062F  0CC6               	rrf	___aldiv@divisor+2,f
  1968     0630  0CC5               	rrf	___aldiv@divisor+1,f
  1969     0631  0CC4               	rrf	___aldiv@divisor,f
  1970     0632  3EFF               	addlw	-1
  1971     0633  1D03               	skipz
  1972     0634  2E2D               	goto	u2945
  1973     0635                     l2239:
  1974     0635  3001               	movlw	1
  1975     0636  02CD               	subwf	___aldiv@counter,f
  1976     0637  1D03               	btfss	3,2
  1977     0638  2E3A               	goto	u2951
  1978     0639  2E3B               	goto	u2950
  1979     063A                     u2951:
  1980     063A  2E02               	goto	l2229
  1981     063B                     u2950:
  1982     063B                     l2241:
  1983     063B  084E               	movf	___aldiv@sign,w
  1984     063C  1903               	btfsc	3,2
  1985     063D  2E3F               	goto	u2961
  1986     063E  2E40               	goto	u2960
  1987     063F                     u2961:
  1988     063F  2E4B               	goto	l2245
  1989     0640                     u2960:
  1990     0640                     l2243:
  1991     0640  09CF               	comf	___aldiv@quotient,f
  1992     0641  09D0               	comf	___aldiv@quotient+1,f
  1993     0642  09D1               	comf	___aldiv@quotient+2,f
  1994     0643  09D2               	comf	___aldiv@quotient+3,f
  1995     0644  0ACF               	incf	___aldiv@quotient,f
  1996     0645  1903               	skipnz
  1997     0646  0AD0               	incf	___aldiv@quotient+1,f
  1998     0647  1903               	skipnz
  1999     0648  0AD1               	incf	___aldiv@quotient+2,f
  2000     0649  1903               	skipnz
  2001     064A  0AD2               	incf	___aldiv@quotient+3,f
  2002     064B                     l2245:
  2003     064B  0852               	movf	___aldiv@quotient+3,w
  2004     064C  00C7               	movwf	?___aldiv+3
  2005     064D  0851               	movf	___aldiv@quotient+2,w
  2006     064E  00C6               	movwf	?___aldiv+2
  2007     064F  0850               	movf	___aldiv@quotient+1,w
  2008     0650  00C5               	movwf	?___aldiv+1
  2009     0651  084F               	movf	___aldiv@quotient,w
  2010     0652  00C4               	movwf	?___aldiv
  2011     0653                     l350:
  2012     0653  0008               	return
  2013     0654                     __end_of___aldiv:
  2014                           
  2015                           	psect	text9
  2016     0D75                     __ptext9:	
  2017 ;; *************** function _adc *****************
  2018 ;; Defined at:
  2019 ;;		line 328 in file "main.c"
  2020 ;; Parameters:    Size  Location     Type
  2021 ;;		None
  2022 ;; Auto vars:     Size  Location     Type
  2023 ;;  adcval          2   32[BANK0 ] unsigned int 
  2024 ;; Return value:  Size  Location     Type
  2025 ;;                  2   30[BANK0 ] unsigned int 
  2026 ;; Registers used:
  2027 ;;		wreg, status,2, status,0, pclath, cstack
  2028 ;; Tracked objects:
  2029 ;;		On entry : 0/0
  2030 ;;		On exit  : 0/0
  2031 ;;		Unchanged: 0/0
  2032 ;; Data sizes:     COMMON   BANK0   BANK1   BANK3   BANK2
  2033 ;;      Params:         0       2       0       0       0
  2034 ;;      Locals:         0       2       0       0       0
  2035 ;;      Temps:          0       0       0       0       0
  2036 ;;      Totals:         0       4       0       0       0
  2037 ;;Total ram usage:        4 bytes
  2038 ;; Hardware stack levels used: 1
  2039 ;; Hardware stack levels required when called: 7
  2040 ;; This function calls:
  2041 ;;		___lwdiv
  2042 ;; This function is called by:
  2043 ;;		_main
  2044 ;; This function uses a non-reentrant model
  2045 ;;
  2046                           
  2047     0D75                     _adc:	
  2048                           ;psect for function _adc
  2049                           
  2050     0D75                     l1973:	
  2051                           ;incstack = 0
  2052                           ; Regs used in _adc: [wreg+status,2+status,0+pclath+cstack]
  2053                           
  2054                           
  2055                           ;main.c: 329:     unsigned int adcval;;main.c: 330:     ADCON1 = 0xc0;
  2056     0D75  30C0               	movlw	192
  2057     0D76  1683               	bsf	3,5	;RP0=1, select bank1
  2058     0D77  1303               	bcf	3,6	;RP1=0, select bank1
  2059     0D78  009F               	movwf	31	;volatile
  2060                           
  2061                           ;main.c: 331:     ADCON0 = 0x85;
  2062     0D79  3085               	movlw	133
  2063     0D7A  1283               	bcf	3,5	;RP0=0, select bank0
  2064     0D7B  1303               	bcf	3,6	;RP1=0, select bank0
  2065     0D7C  009F               	movwf	31	;volatile
  2066     0D7D                     l174:	
  2067                           ;main.c: 332:     while (ADCON0 & 0b00000100);
  2068                           
  2069     0D7D  191F               	btfsc	31,2	;volatile
  2070     0D7E  2D80               	goto	u2521
  2071     0D7F  2D81               	goto	u2520
  2072     0D80                     u2521:
  2073     0D80  2D7D               	goto	l174
  2074     0D81                     u2520:
  2075     0D81                     l1975:
  2076                           
  2077                           ;main.c: 333:     adcval = ((ADRESH << 8) | (ADRESL));
  2078     0D81  081E               	movf	30,w	;volatile
  2079     0D82  00C1               	movwf	adc@adcval+1
  2080     0D83  1683               	bsf	3,5	;RP0=1, select bank1
  2081     0D84  1303               	bcf	3,6	;RP1=0, select bank1
  2082     0D85  081E               	movf	30,w	;volatile
  2083     0D86  1283               	bcf	3,5	;RP0=0, select bank0
  2084     0D87  1303               	bcf	3,6	;RP1=0, select bank0
  2085     0D88  00C0               	movwf	adc@adcval
  2086     0D89                     l1977:
  2087                           
  2088                           ;main.c: 334:     adcval = (adcval / 3) - 1;
  2089     0D89  3003               	movlw	3
  2090     0D8A  00B7               	movwf	___lwdiv@divisor
  2091     0D8B  3000               	movlw	0
  2092     0D8C  00B8               	movwf	___lwdiv@divisor+1
  2093     0D8D  0841               	movf	adc@adcval+1,w
  2094     0D8E  00BA               	movwf	___lwdiv@dividend+1
  2095     0D8F  0840               	movf	adc@adcval,w
  2096     0D90  00B9               	movwf	___lwdiv@dividend
  2097     0D91  120A  158A  25A5  120A  158A  	fcall	___lwdiv
  2098     0D96  1283               	bcf	3,5	;RP0=0, select bank0
  2099     0D97  1303               	bcf	3,6	;RP1=0, select bank0
  2100     0D98  0837               	movf	?___lwdiv,w
  2101     0D99  3EFF               	addlw	255
  2102     0D9A  00C0               	movwf	adc@adcval
  2103     0D9B  0838               	movf	?___lwdiv+1,w
  2104     0D9C  1803               	skipnc
  2105     0D9D  3E01               	addlw	1
  2106     0D9E  3EFF               	addlw	255
  2107     0D9F  00C1               	movwf	adc@adcval+1
  2108     0DA0                     l1979:
  2109                           
  2110                           ;main.c: 335:     return adcval;
  2111     0DA0  0841               	movf	adc@adcval+1,w
  2112     0DA1  00BF               	movwf	?_adc+1
  2113     0DA2  0840               	movf	adc@adcval,w
  2114     0DA3  00BE               	movwf	?_adc
  2115     0DA4                     l177:
  2116     0DA4  0008               	return
  2117     0DA5                     __end_of_adc:
  2118                           
  2119                           	psect	text10
  2120     0DA5                     __ptext10:	
  2121 ;; *************** function ___lwdiv *****************
  2122 ;; Defined at:
  2123 ;;		line 5 in file "C:\Program Files\Microchip\xc8\v3.00\pic\sources\c99\common\lwdiv.c"
  2124 ;; Parameters:    Size  Location     Type
  2125 ;;  divisor         2   23[BANK0 ] unsigned int 
  2126 ;;  dividend        2   25[BANK0 ] unsigned int 
  2127 ;; Auto vars:     Size  Location     Type
  2128 ;;  quotient        2   27[BANK0 ] unsigned int 
  2129 ;;  counter         1   29[BANK0 ] unsigned char 
  2130 ;; Return value:  Size  Location     Type
  2131 ;;                  2   23[BANK0 ] unsigned int 
  2132 ;; Registers used:
  2133 ;;		wreg, status,2, status,0
  2134 ;; Tracked objects:
  2135 ;;		On entry : 0/0
  2136 ;;		On exit  : 0/0
  2137 ;;		Unchanged: 0/0
  2138 ;; Data sizes:     COMMON   BANK0   BANK1   BANK3   BANK2
  2139 ;;      Params:         0       4       0       0       0
  2140 ;;      Locals:         0       3       0       0       0
  2141 ;;      Temps:          0       0       0       0       0
  2142 ;;      Totals:         0       7       0       0       0
  2143 ;;Total ram usage:        7 bytes
  2144 ;; Hardware stack levels used: 1
  2145 ;; Hardware stack levels required when called: 6
  2146 ;; This function calls:
  2147 ;;		Nothing
  2148 ;; This function is called by:
  2149 ;;		_adc
  2150 ;; This function uses a non-reentrant model
  2151 ;;
  2152                           
  2153     0DA5                     ___lwdiv:	
  2154                           ;psect for function ___lwdiv
  2155                           
  2156     0DA5                     l1729:	
  2157                           ;incstack = 0
  2158                           ; Regs used in ___lwdiv: [wreg+status,2+status,0]
  2159                           
  2160     0DA5  1283               	bcf	3,5	;RP0=0, select bank0
  2161     0DA6  1303               	bcf	3,6	;RP1=0, select bank0
  2162     0DA7  01BB               	clrf	___lwdiv@quotient
  2163     0DA8  01BC               	clrf	___lwdiv@quotient+1
  2164     0DA9                     l1731:
  2165     0DA9  0837               	movf	___lwdiv@divisor,w
  2166     0DAA  0438               	iorwf	___lwdiv@divisor+1,w
  2167     0DAB  1903               	btfsc	3,2
  2168     0DAC  2DAE               	goto	u2001
  2169     0DAD  2DAF               	goto	u2000
  2170     0DAE                     u2001:
  2171     0DAE  2DE4               	goto	l1751
  2172     0DAF                     u2000:
  2173     0DAF                     l1733:
  2174     0DAF  3001               	movlw	1
  2175     0DB0  00BD               	movwf	___lwdiv@counter
  2176     0DB1  2DBB               	goto	l1739
  2177     0DB2                     l1735:
  2178     0DB2  3001               	movlw	1
  2179     0DB3                     u2015:
  2180     0DB3  1003               	clrc
  2181     0DB4  0DB7               	rlf	___lwdiv@divisor,f
  2182     0DB5  0DB8               	rlf	___lwdiv@divisor+1,f
  2183     0DB6  3EFF               	addlw	-1
  2184     0DB7  1D03               	skipz
  2185     0DB8  2DB3               	goto	u2015
  2186     0DB9                     l1737:
  2187     0DB9  3001               	movlw	1
  2188     0DBA  07BD               	addwf	___lwdiv@counter,f
  2189     0DBB                     l1739:
  2190     0DBB  1FB8               	btfss	___lwdiv@divisor+1,7
  2191     0DBC  2DBE               	goto	u2021
  2192     0DBD  2DBF               	goto	u2020
  2193     0DBE                     u2021:
  2194     0DBE  2DB2               	goto	l1735
  2195     0DBF                     u2020:
  2196     0DBF                     l1741:
  2197     0DBF  3001               	movlw	1
  2198     0DC0                     u2035:
  2199     0DC0  1003               	clrc
  2200     0DC1  0DBB               	rlf	___lwdiv@quotient,f
  2201     0DC2  0DBC               	rlf	___lwdiv@quotient+1,f
  2202     0DC3  3EFF               	addlw	-1
  2203     0DC4  1D03               	skipz
  2204     0DC5  2DC0               	goto	u2035
  2205     0DC6  0838               	movf	___lwdiv@divisor+1,w
  2206     0DC7  023A               	subwf	___lwdiv@dividend+1,w
  2207     0DC8  1D03               	skipz
  2208     0DC9  2DCC               	goto	u2045
  2209     0DCA  0837               	movf	___lwdiv@divisor,w
  2210     0DCB  0239               	subwf	___lwdiv@dividend,w
  2211     0DCC                     u2045:
  2212     0DCC  1C03               	skipc
  2213     0DCD  2DCF               	goto	u2041
  2214     0DCE  2DD0               	goto	u2040
  2215     0DCF                     u2041:
  2216     0DCF  2DD7               	goto	l1747
  2217     0DD0                     u2040:
  2218     0DD0                     l1743:
  2219     0DD0  0837               	movf	___lwdiv@divisor,w
  2220     0DD1  02B9               	subwf	___lwdiv@dividend,f
  2221     0DD2  0838               	movf	___lwdiv@divisor+1,w
  2222     0DD3  1C03               	skipc
  2223     0DD4  03BA               	decf	___lwdiv@dividend+1,f
  2224     0DD5  02BA               	subwf	___lwdiv@dividend+1,f
  2225     0DD6                     l1745:
  2226     0DD6  143B               	bsf	___lwdiv@quotient,0
  2227     0DD7                     l1747:
  2228     0DD7  3001               	movlw	1
  2229     0DD8                     u2055:
  2230     0DD8  1003               	clrc
  2231     0DD9  0CB8               	rrf	___lwdiv@divisor+1,f
  2232     0DDA  0CB7               	rrf	___lwdiv@divisor,f
  2233     0DDB  3EFF               	addlw	-1
  2234     0DDC  1D03               	skipz
  2235     0DDD  2DD8               	goto	u2055
  2236     0DDE                     l1749:
  2237     0DDE  3001               	movlw	1
  2238     0DDF  02BD               	subwf	___lwdiv@counter,f
  2239     0DE0  1D03               	btfss	3,2
  2240     0DE1  2DE3               	goto	u2061
  2241     0DE2  2DE4               	goto	u2060
  2242     0DE3                     u2061:
  2243     0DE3  2DBF               	goto	l1741
  2244     0DE4                     u2060:
  2245     0DE4                     l1751:
  2246     0DE4  083C               	movf	___lwdiv@quotient+1,w
  2247     0DE5  00B8               	movwf	?___lwdiv+1
  2248     0DE6  083B               	movf	___lwdiv@quotient,w
  2249     0DE7  00B7               	movwf	?___lwdiv
  2250     0DE8                     l555:
  2251     0DE8  0008               	return
  2252     0DE9                     __end_of___lwdiv:
  2253                           
  2254                           	psect	text11
  2255     0C21                     __ptext11:	
  2256 ;; *************** function _Ultrasonic_Init *****************
  2257 ;; Defined at:
  2258 ;;		line 263 in file "main.c"
  2259 ;; Parameters:    Size  Location     Type
  2260 ;;		None
  2261 ;; Auto vars:     Size  Location     Type
  2262 ;;		None
  2263 ;; Return value:  Size  Location     Type
  2264 ;;                  1    wreg      void 
  2265 ;; Registers used:
  2266 ;;		wreg, status,2, status,0
  2267 ;; Tracked objects:
  2268 ;;		On entry : 0/0
  2269 ;;		On exit  : 0/0
  2270 ;;		Unchanged: 0/0
  2271 ;; Data sizes:     COMMON   BANK0   BANK1   BANK3   BANK2
  2272 ;;      Params:         0       0       0       0       0
  2273 ;;      Locals:         0       0       0       0       0
  2274 ;;      Temps:          0       0       0       0       0
  2275 ;;      Totals:         0       0       0       0       0
  2276 ;;Total ram usage:        0 bytes
  2277 ;; Hardware stack levels used: 1
  2278 ;; Hardware stack levels required when called: 6
  2279 ;; This function calls:
  2280 ;;		Nothing
  2281 ;; This function is called by:
  2282 ;;		_main
  2283 ;; This function uses a non-reentrant model
  2284 ;;
  2285                           
  2286     0C21                     _Ultrasonic_Init:	
  2287                           ;psect for function _Ultrasonic_Init
  2288                           
  2289     0C21                     l1945:	
  2290                           ;incstack = 0
  2291                           ; Regs used in _Ultrasonic_Init: [wreg+status,2+status,0]
  2292                           
  2293                           
  2294                           ;main.c: 264:     TRISC &= ~(0b00010000);
  2295     0C21  30EF               	movlw	239
  2296     0C22  1683               	bsf	3,5	;RP0=1, select bank1
  2297     0C23  1303               	bcf	3,6	;RP1=0, select bank1
  2298     0C24  0587               	andwf	7,f	;volatile
  2299     0C25                     l1947:
  2300                           
  2301                           ;main.c: 265:     TRISC |= (0b00001000);
  2302     0C25  1587               	bsf	7,3	;volatile
  2303     0C26                     l141:
  2304     0C26  0008               	return
  2305     0C27                     __end_of_Ultrasonic_Init:
  2306                           
  2307                           	psect	text12
  2308     0399                     __ptext12:	
  2309 ;; *************** function _Read_Ultrasonic *****************
  2310 ;; Defined at:
  2311 ;;		line 268 in file "main.c"
  2312 ;; Parameters:    Size  Location     Type
  2313 ;;		None
  2314 ;; Auto vars:     Size  Location     Type
  2315 ;;  timeout         2   23[BANK1 ] unsigned int 
  2316 ;;  time            2   21[BANK1 ] unsigned int 
  2317 ;; Return value:  Size  Location     Type
  2318 ;;                  2   19[BANK1 ] unsigned int 
  2319 ;; Registers used:
  2320 ;;		wreg, status,2, status,0, btemp+1, pclath, cstack
  2321 ;; Tracked objects:
  2322 ;;		On entry : 0/0
  2323 ;;		On exit  : 0/0
  2324 ;;		Unchanged: 0/0
  2325 ;; Data sizes:     COMMON   BANK0   BANK1   BANK3   BANK2
  2326 ;;      Params:         0       0       2       0       0
  2327 ;;      Locals:         0       0       4       0       0
  2328 ;;      Temps:          0       0       0       0       0
  2329 ;;      Totals:         0       0       6       0       0
  2330 ;;Total ram usage:        6 bytes
  2331 ;; Hardware stack levels used: 1
  2332 ;; Hardware stack levels required when called: 7
  2333 ;; This function calls:
  2334 ;;		___fldiv
  2335 ;;		___fltol
  2336 ;;		___xxtofl
  2337 ;;		_delay_us
  2338 ;; This function is called by:
  2339 ;;		_main
  2340 ;; This function uses a non-reentrant model
  2341 ;;
  2342                           
  2343     0399                     _Read_Ultrasonic:	
  2344                           ;psect for function _Read_Ultrasonic
  2345                           
  2346     0399                     l2297:	
  2347                           ;incstack = 0
  2348                           ; Regs used in _Read_Ultrasonic: [wreg+status,2+status,0+btemp+1+pclath+cstack]
  2349                           
  2350                           
  2351                           ;main.c: 269:     unsigned int timeout = 300;
  2352     0399  302C               	movlw	44
  2353     039A  1683               	bsf	3,5	;RP0=1, select bank1
  2354     039B  1303               	bcf	3,6	;RP1=0, select bank1
  2355     039C  00B7               	movwf	Read_Ultrasonic@timeout^(0+128)
  2356     039D  3001               	movlw	1
  2357     039E  00B8               	movwf	(Read_Ultrasonic@timeout^(0+128)+1)
  2358     039F                     l2299:
  2359                           
  2360                           ;main.c: 270:     unsigned int time = 0;
  2361     039F  01B5               	clrf	Read_Ultrasonic@time^(0+128)
  2362     03A0  01B6               	clrf	(Read_Ultrasonic@time+1)^(0+128)
  2363     03A1                     l2301:
  2364                           
  2365                           ;main.c: 272:     PORTC |= (1 << 4);
  2366     03A1  1283               	bcf	3,5	;RP0=0, select bank0
  2367     03A2  1303               	bcf	3,6	;RP1=0, select bank0
  2368     03A3  1607               	bsf	7,4	;volatile
  2369     03A4                     l2303:
  2370                           
  2371                           ;main.c: 273:     delay_us(10);
  2372     03A4  300A               	movlw	10
  2373     03A5  00B7               	movwf	delay_us@x
  2374     03A6  3000               	movlw	0
  2375     03A7  00B8               	movwf	delay_us@x+1
  2376     03A8  120A  158A  24A4  120A  118A  	fcall	_delay_us
  2377     03AD                     l2305:
  2378                           
  2379                           ;main.c: 274:     PORTC &= ~(1 << 4);
  2380     03AD  30EF               	movlw	239
  2381     03AE  1283               	bcf	3,5	;RP0=0, select bank0
  2382     03AF  1303               	bcf	3,6	;RP1=0, select bank0
  2383     03B0  0587               	andwf	7,f	;volatile
  2384                           
  2385                           ;main.c: 276:     while (!(PORTC & (1 << 3)) && timeout--) delay_us(1);
  2386     03B1  2BBD               	goto	l2309
  2387     03B2                     l2307:
  2388     03B2  3001               	movlw	1
  2389     03B3  1283               	bcf	3,5	;RP0=0, select bank0
  2390     03B4  1303               	bcf	3,6	;RP1=0, select bank0
  2391     03B5  00B7               	movwf	delay_us@x
  2392     03B6  3000               	movlw	0
  2393     03B7  00B8               	movwf	delay_us@x+1
  2394     03B8  120A  158A  24A4  120A  118A  	fcall	_delay_us
  2395     03BD                     l2309:
  2396     03BD  1283               	bcf	3,5	;RP0=0, select bank0
  2397     03BE  1303               	bcf	3,6	;RP1=0, select bank0
  2398     03BF  1987               	btfsc	7,3	;volatile
  2399     03C0  2BC2               	goto	u3081
  2400     03C1  2BC3               	goto	u3080
  2401     03C2                     u3081:
  2402     03C2  2BD3               	goto	l2313
  2403     03C3                     u3080:
  2404     03C3                     l2311:
  2405     03C3  3001               	movlw	1
  2406     03C4  1683               	bsf	3,5	;RP0=1, select bank1
  2407     03C5  1303               	bcf	3,6	;RP1=0, select bank1
  2408     03C6  02B7               	subwf	Read_Ultrasonic@timeout^(0+128),f
  2409     03C7  3000               	movlw	0
  2410     03C8  1C03               	skipc
  2411     03C9  03B8               	decf	(Read_Ultrasonic@timeout+1)^(0+128),f
  2412     03CA  02B8               	subwf	(Read_Ultrasonic@timeout+1)^(0+128),f
  2413     03CB  0A37               	incf	Read_Ultrasonic@timeout^(0+128),w
  2414     03CC  1D03               	skipz
  2415     03CD  2BD2               	goto	u3091
  2416     03CE  0A38               	incf	(Read_Ultrasonic@timeout+1)^(0+128),w
  2417     03CF  1D03               	btfss	3,2
  2418     03D0  2BD2               	goto	u3091
  2419     03D1  2BD3               	goto	u3090
  2420     03D2                     u3091:
  2421     03D2  2BB2               	goto	l2307
  2422     03D3                     u3090:
  2423     03D3                     l2313:
  2424                           
  2425                           ;main.c: 277:     if (timeout == 0) return -1;
  2426     03D3  1683               	bsf	3,5	;RP0=1, select bank1
  2427     03D4  1303               	bcf	3,6	;RP1=0, select bank1
  2428     03D5  0837               	movf	Read_Ultrasonic@timeout^(0+128),w
  2429     03D6  0438               	iorwf	(Read_Ultrasonic@timeout+1)^(0+128),w
  2430     03D7  1D03               	btfss	3,2
  2431     03D8  2BDA               	goto	u3101
  2432     03D9  2BDB               	goto	u3100
  2433     03DA                     u3101:
  2434     03DA  2BE0               	goto	l2319
  2435     03DB                     u3100:
  2436     03DB                     l2315:
  2437     03DB  30FF               	movlw	255
  2438     03DC  00B3               	movwf	?_Read_Ultrasonic^(0+128)
  2439     03DD  30FF               	movlw	255
  2440     03DE  00B4               	movwf	(?_Read_Ultrasonic^(0+128)+1)
  2441     03DF  2C5B               	goto	l150
  2442     03E0                     l2319:
  2443                           
  2444                           ;main.c: 279:     timeout = 30000;
  2445     03E0  3030               	movlw	48
  2446     03E1  00B7               	movwf	Read_Ultrasonic@timeout^(0+128)
  2447     03E2  3075               	movlw	117
  2448     03E3  00B8               	movwf	(Read_Ultrasonic@timeout^(0+128)+1)
  2449                           
  2450                           ;main.c: 280:     while ((PORTC & (1 << 3)) && timeout--) {
  2451     03E4  2BF8               	goto	l2325
  2452     03E5                     l2321:
  2453                           
  2454                           ;main.c: 281:         delay_us(1);
  2455     03E5  3001               	movlw	1
  2456     03E6  1283               	bcf	3,5	;RP0=0, select bank0
  2457     03E7  1303               	bcf	3,6	;RP1=0, select bank0
  2458     03E8  00B7               	movwf	delay_us@x
  2459     03E9  3000               	movlw	0
  2460     03EA  00B8               	movwf	delay_us@x+1
  2461     03EB  120A  158A  24A4  120A  118A  	fcall	_delay_us
  2462     03F0                     l2323:
  2463                           
  2464                           ;main.c: 282:         time++;
  2465     03F0  3001               	movlw	1
  2466     03F1  1683               	bsf	3,5	;RP0=1, select bank1
  2467     03F2  1303               	bcf	3,6	;RP1=0, select bank1
  2468     03F3  07B5               	addwf	Read_Ultrasonic@time^(0+128),f
  2469     03F4  1803               	skipnc
  2470     03F5  0AB6               	incf	(Read_Ultrasonic@time+1)^(0+128),f
  2471     03F6  3000               	movlw	0
  2472     03F7  07B6               	addwf	(Read_Ultrasonic@time+1)^(0+128),f
  2473     03F8                     l2325:
  2474                           
  2475                           ;main.c: 280:     while ((PORTC & (1 << 3)) && timeout--) {
  2476     03F8  1283               	bcf	3,5	;RP0=0, select bank0
  2477     03F9  1303               	bcf	3,6	;RP1=0, select bank0
  2478     03FA  1D87               	btfss	7,3	;volatile
  2479     03FB  2BFD               	goto	u3111
  2480     03FC  2BFE               	goto	u3110
  2481     03FD                     u3111:
  2482     03FD  2C0E               	goto	l2329
  2483     03FE                     u3110:
  2484     03FE                     l2327:
  2485     03FE  3001               	movlw	1
  2486     03FF  1683               	bsf	3,5	;RP0=1, select bank1
  2487     0400  1303               	bcf	3,6	;RP1=0, select bank1
  2488     0401  02B7               	subwf	Read_Ultrasonic@timeout^(0+128),f
  2489     0402  3000               	movlw	0
  2490     0403  1C03               	skipc
  2491     0404  03B8               	decf	(Read_Ultrasonic@timeout+1)^(0+128),f
  2492     0405  02B8               	subwf	(Read_Ultrasonic@timeout+1)^(0+128),f
  2493     0406  0A37               	incf	Read_Ultrasonic@timeout^(0+128),w
  2494     0407  1D03               	skipz
  2495     0408  2C0D               	goto	u3121
  2496     0409  0A38               	incf	(Read_Ultrasonic@timeout+1)^(0+128),w
  2497     040A  1D03               	btfss	3,2
  2498     040B  2C0D               	goto	u3121
  2499     040C  2C0E               	goto	u3120
  2500     040D                     u3121:
  2501     040D  2BE5               	goto	l2321
  2502     040E                     u3120:
  2503     040E                     l2329:
  2504                           
  2505                           ;main.c: 284:     if (timeout == 0) return -1;
  2506     040E  1683               	bsf	3,5	;RP0=1, select bank1
  2507     040F  1303               	bcf	3,6	;RP1=0, select bank1
  2508     0410  0837               	movf	Read_Ultrasonic@timeout^(0+128),w
  2509     0411  0438               	iorwf	(Read_Ultrasonic@timeout+1)^(0+128),w
  2510     0412  1D03               	btfss	3,2
  2511     0413  2C15               	goto	u3131
  2512     0414  2C16               	goto	u3130
  2513     0415                     u3131:
  2514     0415  2C17               	goto	l2335
  2515     0416                     u3130:
  2516     0416  2BDB               	goto	l2315
  2517     0417                     l2335:
  2518                           
  2519                           ;main.c: 286:     return time / 5.8;
  2520     0417  0835               	movf	Read_Ultrasonic@time^(0+128),w
  2521     0418  1283               	bcf	3,5	;RP0=0, select bank0
  2522     0419  1303               	bcf	3,6	;RP1=0, select bank0
  2523     041A  00B7               	movwf	___xxtofl@val
  2524     041B  1683               	bsf	3,5	;RP0=1, select bank1
  2525     041C  1303               	bcf	3,6	;RP1=0, select bank1
  2526     041D  0836               	movf	(Read_Ultrasonic@time+1)^(0+128),w
  2527     041E  1283               	bcf	3,5	;RP0=0, select bank0
  2528     041F  1303               	bcf	3,6	;RP1=0, select bank0
  2529     0420  00B8               	movwf	___xxtofl@val+1
  2530     0421  01B9               	clrf	___xxtofl@val+2
  2531     0422  01BA               	clrf	___xxtofl@val+3
  2532     0423  3000               	movlw	0
  2533     0424  120A  118A  245C  120A  118A  	fcall	___xxtofl
  2534     0429  1283               	bcf	3,5	;RP0=0, select bank0
  2535     042A  1303               	bcf	3,6	;RP1=0, select bank0
  2536     042B  083A               	movf	?___xxtofl+3,w
  2537     042C  00CC               	movwf	___fldiv@b+3
  2538     042D  0839               	movf	?___xxtofl+2,w
  2539     042E  00CB               	movwf	___fldiv@b+2
  2540     042F  0838               	movf	?___xxtofl+1,w
  2541     0430  00CA               	movwf	___fldiv@b+1
  2542     0431  0837               	movf	?___xxtofl,w
  2543     0432  00C9               	movwf	___fldiv@b
  2544     0433  3040               	movlw	64
  2545     0434  00C8               	movwf	___fldiv@a+3
  2546     0435  30B9               	movlw	185
  2547     0436  00C7               	movwf	___fldiv@a+2
  2548     0437  3099               	movlw	153
  2549     0438  00C6               	movwf	___fldiv@a+1
  2550     0439  309A               	movlw	154
  2551     043A  00C5               	movwf	___fldiv@a
  2552     043B  120A  118A  201E  120A  118A  	fcall	___fldiv
  2553     0440  1283               	bcf	3,5	;RP0=0, select bank0
  2554     0441  1303               	bcf	3,6	;RP1=0, select bank0
  2555     0442  0848               	movf	?___fldiv+3,w
  2556     0443  00D5               	movwf	___fltol@f1+3
  2557     0444  0847               	movf	?___fldiv+2,w
  2558     0445  00D4               	movwf	___fltol@f1+2
  2559     0446  0846               	movf	?___fldiv+1,w
  2560     0447  00D3               	movwf	___fltol@f1+1
  2561     0448  0845               	movf	?___fldiv,w
  2562     0449  00D2               	movwf	___fltol@f1
  2563     044A  120A  118A  26ED  120A  118A  	fcall	___fltol
  2564     044F  1283               	bcf	3,5	;RP0=0, select bank0
  2565     0450  1303               	bcf	3,6	;RP1=0, select bank0
  2566     0451  0853               	movf	?___fltol+1,w
  2567     0452  1683               	bsf	3,5	;RP0=1, select bank1
  2568     0453  1303               	bcf	3,6	;RP1=0, select bank1
  2569     0454  00B4               	movwf	(?_Read_Ultrasonic+1)^(0+128)
  2570     0455  1283               	bcf	3,5	;RP0=0, select bank0
  2571     0456  1303               	bcf	3,6	;RP1=0, select bank0
  2572     0457  0852               	movf	?___fltol,w
  2573     0458  1683               	bsf	3,5	;RP0=1, select bank1
  2574     0459  1303               	bcf	3,6	;RP1=0, select bank1
  2575     045A  00B3               	movwf	?_Read_Ultrasonic^(0+128)
  2576     045B                     l150:
  2577     045B  0008               	return
  2578     045C                     __end_of_Read_Ultrasonic:
  2579                           
  2580                           	psect	text13
  2581     0CA4                     __ptext13:	
  2582 ;; *************** function _delay_us *****************
  2583 ;; Defined at:
  2584 ;;		line 344 in file "main.c"
  2585 ;; Parameters:    Size  Location     Type
  2586 ;;  x               2   23[BANK0 ] unsigned int 
  2587 ;; Auto vars:     Size  Location     Type
  2588 ;;  i               2   25[BANK0 ] unsigned int 
  2589 ;; Return value:  Size  Location     Type
  2590 ;;                  1    wreg      void 
  2591 ;; Registers used:
  2592 ;;		wreg, status,2
  2593 ;; Tracked objects:
  2594 ;;		On entry : 0/0
  2595 ;;		On exit  : 0/0
  2596 ;;		Unchanged: 0/0
  2597 ;; Data sizes:     COMMON   BANK0   BANK1   BANK3   BANK2
  2598 ;;      Params:         0       2       0       0       0
  2599 ;;      Locals:         0       2       0       0       0
  2600 ;;      Temps:          0       0       0       0       0
  2601 ;;      Totals:         0       4       0       0       0
  2602 ;;Total ram usage:        4 bytes
  2603 ;; Hardware stack levels used: 1
  2604 ;; Hardware stack levels required when called: 6
  2605 ;; This function calls:
  2606 ;;		Nothing
  2607 ;; This function is called by:
  2608 ;;		_Read_Ultrasonic
  2609 ;;		_delay_ms
  2610 ;; This function uses a non-reentrant model
  2611 ;;
  2612                           
  2613     0CA4                     _delay_us:	
  2614                           ;psect for function _delay_us
  2615                           
  2616     0CA4                     l1689:	
  2617                           ;incstack = 0
  2618                           ; Regs used in _delay_us: [wreg+status,2]
  2619                           
  2620                           
  2621                           ;main.c: 345:     unsigned int i;;main.c: 346:     for (i = 0; i < x; i++) {
  2622     0CA4  1283               	bcf	3,5	;RP0=0, select bank0
  2623     0CA5  1303               	bcf	3,6	;RP1=0, select bank0
  2624     0CA6  01B9               	clrf	delay_us@i
  2625     0CA7  01BA               	clrf	delay_us@i+1
  2626     0CA8  2CB3               	goto	l186
  2627     0CA9                     l187:
  2628     0CA9  0000               	nop	;# 
  2629     0CAA  0000               	nop	;# 
  2630     0CAB                     l1691:
  2631                           
  2632                           ;main.c: 349:     }
  2633     0CAB  3001               	movlw	1
  2634     0CAC  1283               	bcf	3,5	;RP0=0, select bank0
  2635     0CAD  1303               	bcf	3,6	;RP1=0, select bank0
  2636     0CAE  07B9               	addwf	delay_us@i,f
  2637     0CAF  1803               	skipnc
  2638     0CB0  0ABA               	incf	delay_us@i+1,f
  2639     0CB1  3000               	movlw	0
  2640     0CB2  07BA               	addwf	delay_us@i+1,f
  2641     0CB3                     l186:
  2642     0CB3  0838               	movf	delay_us@x+1,w
  2643     0CB4  023A               	subwf	delay_us@i+1,w
  2644     0CB5  1D03               	skipz
  2645     0CB6  2CB9               	goto	u1895
  2646     0CB7  0837               	movf	delay_us@x,w
  2647     0CB8  0239               	subwf	delay_us@i,w
  2648     0CB9                     u1895:
  2649     0CB9  1C03               	skipc
  2650     0CBA  2CBC               	goto	u1891
  2651     0CBB  2CBD               	goto	u1890
  2652     0CBC                     u1891:
  2653     0CBC  2CA9               	goto	l187
  2654     0CBD                     u1890:
  2655     0CBD                     l189:
  2656     0CBD  0008               	return
  2657     0CBE                     __end_of_delay_us:
  2658                           
  2659                           	psect	text14
  2660     045C                     __ptext14:	
  2661 ;; *************** function ___xxtofl *****************
  2662 ;; Defined at:
  2663 ;;		line 10 in file "C:\Program Files\Microchip\xc8\v3.00\pic\sources\c99\common\xxtofl.c"
  2664 ;; Parameters:    Size  Location     Type
  2665 ;;  sign            1    wreg     unsigned char 
  2666 ;;  val             4   23[BANK0 ] long 
  2667 ;; Auto vars:     Size  Location     Type
  2668 ;;  sign            1   31[BANK0 ] unsigned char 
  2669 ;;  arg             4   33[BANK0 ] unsigned long 
  2670 ;;  exp             1   32[BANK0 ] unsigned char 
  2671 ;; Return value:  Size  Location     Type
  2672 ;;                  4   23[BANK0 ] unsigned char 
  2673 ;; Registers used:
  2674 ;;		wreg, status,2, status,0
  2675 ;; Tracked objects:
  2676 ;;		On entry : 0/0
  2677 ;;		On exit  : 0/0
  2678 ;;		Unchanged: 0/0
  2679 ;; Data sizes:     COMMON   BANK0   BANK1   BANK3   BANK2
  2680 ;;      Params:         0       4       0       0       0
  2681 ;;      Locals:         0       6       0       0       0
  2682 ;;      Temps:          0       4       0       0       0
  2683 ;;      Totals:         0      14       0       0       0
  2684 ;;Total ram usage:       14 bytes
  2685 ;; Hardware stack levels used: 1
  2686 ;; Hardware stack levels required when called: 6
  2687 ;; This function calls:
  2688 ;;		Nothing
  2689 ;; This function is called by:
  2690 ;;		_Read_Ultrasonic
  2691 ;; This function uses a non-reentrant model
  2692 ;;
  2693                           
  2694     045C                     ___xxtofl:	
  2695                           ;psect for function ___xxtofl
  2696                           
  2697                           
  2698                           ;incstack = 0
  2699                           ; Regs used in ___xxtofl: [wreg+status,2+status,0]
  2700                           ;___xxtofl@sign stored from wreg
  2701     045C  1283               	bcf	3,5	;RP0=0, select bank0
  2702     045D  1303               	bcf	3,6	;RP1=0, select bank0
  2703     045E  00BF               	movwf	___xxtofl@sign
  2704     045F                     l1899:
  2705     045F  083F               	movf	___xxtofl@sign,w
  2706     0460  1903               	btfsc	3,2
  2707     0461  2C63               	goto	u2371
  2708     0462  2C64               	goto	u2370
  2709     0463                     u2371:
  2710     0463  2C78               	goto	l1905
  2711     0464                     u2370:
  2712     0464                     l1901:
  2713     0464  1FBA               	btfss	___xxtofl@val+3,7
  2714     0465  2C67               	goto	u2381
  2715     0466  2C68               	goto	u2380
  2716     0467                     u2381:
  2717     0467  2C78               	goto	l1905
  2718     0468                     u2380:
  2719     0468                     l1903:
  2720     0468  0937               	comf	___xxtofl@val,w
  2721     0469  00C1               	movwf	___xxtofl@arg
  2722     046A  0938               	comf	___xxtofl@val+1,w
  2723     046B  00C2               	movwf	___xxtofl@arg+1
  2724     046C  0939               	comf	___xxtofl@val+2,w
  2725     046D  00C3               	movwf	___xxtofl@arg+2
  2726     046E  093A               	comf	___xxtofl@val+3,w
  2727     046F  00C4               	movwf	___xxtofl@arg+3
  2728     0470  0AC1               	incf	___xxtofl@arg,f
  2729     0471  1903               	skipnz
  2730     0472  0AC2               	incf	___xxtofl@arg+1,f
  2731     0473  1903               	skipnz
  2732     0474  0AC3               	incf	___xxtofl@arg+2,f
  2733     0475  1903               	skipnz
  2734     0476  0AC4               	incf	___xxtofl@arg+3,f
  2735     0477  2C80               	goto	l716
  2736     0478                     l1905:
  2737     0478  083A               	movf	___xxtofl@val+3,w
  2738     0479  00C4               	movwf	___xxtofl@arg+3
  2739     047A  0839               	movf	___xxtofl@val+2,w
  2740     047B  00C3               	movwf	___xxtofl@arg+2
  2741     047C  0838               	movf	___xxtofl@val+1,w
  2742     047D  00C2               	movwf	___xxtofl@arg+1
  2743     047E  0837               	movf	___xxtofl@val,w
  2744     047F  00C1               	movwf	___xxtofl@arg
  2745     0480                     l716:
  2746     0480  083A               	movf	___xxtofl@val+3,w
  2747     0481  0439               	iorwf	___xxtofl@val+2,w
  2748     0482  0438               	iorwf	___xxtofl@val+1,w
  2749     0483  0437               	iorwf	___xxtofl@val,w
  2750     0484  1D03               	skipz
  2751     0485  2C87               	goto	u2391
  2752     0486  2C88               	goto	u2390
  2753     0487                     u2391:
  2754     0487  2C91               	goto	l717
  2755     0488                     u2390:
  2756     0488                     l1907:
  2757     0488  3000               	movlw	0
  2758     0489  00BA               	movwf	?___xxtofl+3
  2759     048A  3000               	movlw	0
  2760     048B  00B9               	movwf	?___xxtofl+2
  2761     048C  3000               	movlw	0
  2762     048D  00B8               	movwf	?___xxtofl+1
  2763     048E  3000               	movlw	0
  2764     048F  00B7               	movwf	?___xxtofl
  2765     0490  2D11               	goto	l718
  2766     0491                     l717:
  2767     0491  3096               	movlw	150
  2768     0492  00C0               	movwf	___xxtofl@exp
  2769     0493  2C9F               	goto	l1913
  2770     0494                     l1911:
  2771     0494  3001               	movlw	1
  2772     0495  07C0               	addwf	___xxtofl@exp,f
  2773     0496  3001               	movlw	1
  2774     0497                     u2405:
  2775     0497  1003               	clrc
  2776     0498  0CC4               	rrf	___xxtofl@arg+3,f
  2777     0499  0CC3               	rrf	___xxtofl@arg+2,f
  2778     049A  0CC2               	rrf	___xxtofl@arg+1,f
  2779     049B  0CC1               	rrf	___xxtofl@arg,f
  2780     049C  3EFF               	addlw	-1
  2781     049D  1D03               	skipz
  2782     049E  2C97               	goto	u2405
  2783     049F                     l1913:
  2784     049F  30FE               	movlw	254
  2785     04A0  0544               	andwf	___xxtofl@arg+3,w
  2786     04A1  1D03               	btfss	3,2
  2787     04A2  2CA4               	goto	u2411
  2788     04A3  2CA5               	goto	u2410
  2789     04A4                     u2411:
  2790     04A4  2C94               	goto	l1911
  2791     04A5                     u2410:
  2792     04A5  2CBF               	goto	l722
  2793     04A6                     l1915:
  2794     04A6  3001               	movlw	1
  2795     04A7  07C0               	addwf	___xxtofl@exp,f
  2796     04A8                     l1917:
  2797     04A8  3001               	movlw	1
  2798     04A9  07C1               	addwf	___xxtofl@arg,f
  2799     04AA  3000               	movlw	0
  2800     04AB  1803               	skipnc
  2801     04AC  3001               	movlw	1
  2802     04AD  07C2               	addwf	___xxtofl@arg+1,f
  2803     04AE  3000               	movlw	0
  2804     04AF  1803               	skipnc
  2805     04B0  3001               	movlw	1
  2806     04B1  07C3               	addwf	___xxtofl@arg+2,f
  2807     04B2  3000               	movlw	0
  2808     04B3  1803               	skipnc
  2809     04B4  3001               	movlw	1
  2810     04B5  07C4               	addwf	___xxtofl@arg+3,f
  2811     04B6                     l1919:
  2812     04B6  3001               	movlw	1
  2813     04B7                     u2425:
  2814     04B7  1003               	clrc
  2815     04B8  0CC4               	rrf	___xxtofl@arg+3,f
  2816     04B9  0CC3               	rrf	___xxtofl@arg+2,f
  2817     04BA  0CC2               	rrf	___xxtofl@arg+1,f
  2818     04BB  0CC1               	rrf	___xxtofl@arg,f
  2819     04BC  3EFF               	addlw	-1
  2820     04BD  1D03               	skipz
  2821     04BE  2CB7               	goto	u2425
  2822     04BF                     l722:
  2823     04BF  30FF               	movlw	255
  2824     04C0  0544               	andwf	___xxtofl@arg+3,w
  2825     04C1  1D03               	btfss	3,2
  2826     04C2  2CC4               	goto	u2431
  2827     04C3  2CC5               	goto	u2430
  2828     04C4                     u2431:
  2829     04C4  2CA6               	goto	l1915
  2830     04C5                     u2430:
  2831     04C5  2CD1               	goto	l1923
  2832     04C6                     l1921:
  2833     04C6  3001               	movlw	1
  2834     04C7  02C0               	subwf	___xxtofl@exp,f
  2835     04C8  3001               	movlw	1
  2836     04C9  00BB               	movwf	??___xxtofl
  2837     04CA                     u2445:
  2838     04CA  1003               	clrc
  2839     04CB  0DC1               	rlf	___xxtofl@arg,f
  2840     04CC  0DC2               	rlf	___xxtofl@arg+1,f
  2841     04CD  0DC3               	rlf	___xxtofl@arg+2,f
  2842     04CE  0DC4               	rlf	___xxtofl@arg+3,f
  2843     04CF  0BBB               	decfsz	??___xxtofl,f
  2844     04D0  2CCA               	goto	u2445
  2845     04D1                     l1923:
  2846     04D1  1BC3               	btfsc	___xxtofl@arg+2,7
  2847     04D2  2CD4               	goto	u2451
  2848     04D3  2CD5               	goto	u2450
  2849     04D4                     u2451:
  2850     04D4  2CDB               	goto	l729
  2851     04D5                     u2450:
  2852     04D5                     l1925:
  2853     04D5  3002               	movlw	2
  2854     04D6  0240               	subwf	___xxtofl@exp,w
  2855     04D7  1803               	skipnc
  2856     04D8  2CDA               	goto	u2461
  2857     04D9  2CDB               	goto	u2460
  2858     04DA                     u2461:
  2859     04DA  2CC6               	goto	l1921
  2860     04DB                     u2460:
  2861     04DB                     l729:
  2862     04DB  1840               	btfsc	___xxtofl@exp,0
  2863     04DC  2CDE               	goto	u2471
  2864     04DD  2CDF               	goto	u2470
  2865     04DE                     u2471:
  2866     04DE  2CE7               	goto	l730
  2867     04DF                     u2470:
  2868     04DF                     l1927:
  2869     04DF  30FF               	movlw	255
  2870     04E0  05C1               	andwf	___xxtofl@arg,f
  2871     04E1  30FF               	movlw	255
  2872     04E2  05C2               	andwf	___xxtofl@arg+1,f
  2873     04E3  307F               	movlw	127
  2874     04E4  05C3               	andwf	___xxtofl@arg+2,f
  2875     04E5  30FF               	movlw	255
  2876     04E6  05C4               	andwf	___xxtofl@arg+3,f
  2877     04E7                     l730:
  2878     04E7  1003               	clrc
  2879     04E8  0CC0               	rrf	___xxtofl@exp,f
  2880     04E9                     l1929:
  2881     04E9  0840               	movf	___xxtofl@exp,w
  2882     04EA  00BB               	movwf	??___xxtofl
  2883     04EB  01BC               	clrf	??___xxtofl+1
  2884     04EC  01BD               	clrf	??___xxtofl+2
  2885     04ED  01BE               	clrf	??___xxtofl+3
  2886     04EE  3018               	movlw	24
  2887     04EF                     u2485:
  2888     04EF  1003               	clrc
  2889     04F0  0DBB               	rlf	??___xxtofl,f
  2890     04F1  0DBC               	rlf	??___xxtofl+1,f
  2891     04F2  0DBD               	rlf	??___xxtofl+2,f
  2892     04F3  0DBE               	rlf	??___xxtofl+3,f
  2893     04F4                     u2480:
  2894     04F4  3EFF               	addlw	-1
  2895     04F5  1D03               	skipz
  2896     04F6  2CEF               	goto	u2485
  2897     04F7  083B               	movf	??___xxtofl,w
  2898     04F8  04C1               	iorwf	___xxtofl@arg,f
  2899     04F9  083C               	movf	??___xxtofl+1,w
  2900     04FA  04C2               	iorwf	___xxtofl@arg+1,f
  2901     04FB  083D               	movf	??___xxtofl+2,w
  2902     04FC  04C3               	iorwf	___xxtofl@arg+2,f
  2903     04FD  083E               	movf	??___xxtofl+3,w
  2904     04FE  04C4               	iorwf	___xxtofl@arg+3,f
  2905     04FF                     l1931:
  2906     04FF  083F               	movf	___xxtofl@sign,w
  2907     0500  1903               	btfsc	3,2
  2908     0501  2D03               	goto	u2491
  2909     0502  2D04               	goto	u2490
  2910     0503                     u2491:
  2911     0503  2D09               	goto	l1937
  2912     0504                     u2490:
  2913     0504                     l1933:
  2914     0504  1FBA               	btfss	___xxtofl@val+3,7
  2915     0505  2D07               	goto	u2501
  2916     0506  2D08               	goto	u2500
  2917     0507                     u2501:
  2918     0507  2D09               	goto	l1937
  2919     0508                     u2500:
  2920     0508                     l1935:
  2921     0508  17C4               	bsf	___xxtofl@arg+3,7
  2922     0509                     l1937:
  2923     0509  0844               	movf	___xxtofl@arg+3,w
  2924     050A  00BA               	movwf	?___xxtofl+3
  2925     050B  0843               	movf	___xxtofl@arg+2,w
  2926     050C  00B9               	movwf	?___xxtofl+2
  2927     050D  0842               	movf	___xxtofl@arg+1,w
  2928     050E  00B8               	movwf	?___xxtofl+1
  2929     050F  0841               	movf	___xxtofl@arg,w
  2930     0510  00B7               	movwf	?___xxtofl
  2931     0511                     l718:
  2932     0511  0008               	return
  2933     0512                     __end_of___xxtofl:
  2934                           
  2935                           	psect	text15
  2936     06ED                     __ptext15:	
  2937 ;; *************** function ___fltol *****************
  2938 ;; Defined at:
  2939 ;;		line 43 in file "C:\Program Files\Microchip\xc8\v3.00\pic\sources\c99\common\fltol.c"
  2940 ;; Parameters:    Size  Location     Type
  2941 ;;  f1              4   50[BANK0 ] unsigned char 
  2942 ;; Auto vars:     Size  Location     Type
  2943 ;;  exp1            1   18[BANK1 ] unsigned char 
  2944 ;;  sign1           1   17[BANK1 ] unsigned char 
  2945 ;; Return value:  Size  Location     Type
  2946 ;;                  4   50[BANK0 ] long 
  2947 ;; Registers used:
  2948 ;;		wreg, status,2, status,0
  2949 ;; Tracked objects:
  2950 ;;		On entry : 0/0
  2951 ;;		On exit  : 0/0
  2952 ;;		Unchanged: 0/0
  2953 ;; Data sizes:     COMMON   BANK0   BANK1   BANK3   BANK2
  2954 ;;      Params:         0       4       0       0       0
  2955 ;;      Locals:         0       0       2       0       0
  2956 ;;      Temps:          0       0       4       0       0
  2957 ;;      Totals:         0       4       6       0       0
  2958 ;;Total ram usage:       10 bytes
  2959 ;; Hardware stack levels used: 1
  2960 ;; Hardware stack levels required when called: 6
  2961 ;; This function calls:
  2962 ;;		Nothing
  2963 ;; This function is called by:
  2964 ;;		_Read_Ultrasonic
  2965 ;; This function uses a non-reentrant model
  2966 ;;
  2967                           
  2968     06ED                     ___fltol:	
  2969                           ;psect for function ___fltol
  2970                           
  2971     06ED                     l2257:	
  2972                           ;incstack = 0
  2973                           ; Regs used in ___fltol: [wreg+status,2+status,0]
  2974                           
  2975     06ED  1003               	clrc
  2976     06EE  1283               	bcf	3,5	;RP0=0, select bank0
  2977     06EF  1303               	bcf	3,6	;RP1=0, select bank0
  2978     06F0  0D54               	rlf	___fltol@f1+2,w
  2979     06F1  0D55               	rlf	___fltol@f1+3,w
  2980     06F2  1683               	bsf	3,5	;RP0=1, select bank1
  2981     06F3  1303               	bcf	3,6	;RP1=0, select bank1
  2982     06F4  00B2               	movwf	___fltol@exp1^(0+128)
  2983     06F5  0832               	movf	___fltol@exp1^(0+128),w
  2984     06F6  1D03               	btfss	3,2
  2985     06F7  2EF9               	goto	u2981
  2986     06F8  2EFA               	goto	u2980
  2987     06F9                     u2981:
  2988     06F9  2F05               	goto	l2263
  2989     06FA                     u2980:
  2990     06FA                     l2259:
  2991     06FA  3000               	movlw	0
  2992     06FB  1283               	bcf	3,5	;RP0=0, select bank0
  2993     06FC  1303               	bcf	3,6	;RP1=0, select bank0
  2994     06FD  00D5               	movwf	?___fltol+3
  2995     06FE  3000               	movlw	0
  2996     06FF  00D4               	movwf	?___fltol+2
  2997     0700  3000               	movlw	0
  2998     0701  00D3               	movwf	?___fltol+1
  2999     0702  3000               	movlw	0
  3000     0703  00D2               	movwf	?___fltol
  3001     0704  2F84               	goto	l469
  3002     0705                     l2263:
  3003     0705  1283               	bcf	3,5	;RP0=0, select bank0
  3004     0706  1303               	bcf	3,6	;RP1=0, select bank0
  3005     0707  0852               	movf	___fltol@f1,w
  3006     0708  1683               	bsf	3,5	;RP0=1, select bank1
  3007     0709  1303               	bcf	3,6	;RP1=0, select bank1
  3008     070A  00AD               	movwf	??___fltol^(0+128)
  3009     070B  1283               	bcf	3,5	;RP0=0, select bank0
  3010     070C  1303               	bcf	3,6	;RP1=0, select bank0
  3011     070D  0853               	movf	___fltol@f1+1,w
  3012     070E  1683               	bsf	3,5	;RP0=1, select bank1
  3013     070F  1303               	bcf	3,6	;RP1=0, select bank1
  3014     0710  00AE               	movwf	(??___fltol^(0+128)+1)
  3015     0711  1283               	bcf	3,5	;RP0=0, select bank0
  3016     0712  1303               	bcf	3,6	;RP1=0, select bank0
  3017     0713  0854               	movf	___fltol@f1+2,w
  3018     0714  1683               	bsf	3,5	;RP0=1, select bank1
  3019     0715  1303               	bcf	3,6	;RP1=0, select bank1
  3020     0716  00AF               	movwf	(??___fltol^(0+128)+2)
  3021     0717  1283               	bcf	3,5	;RP0=0, select bank0
  3022     0718  1303               	bcf	3,6	;RP1=0, select bank0
  3023     0719  0855               	movf	___fltol@f1+3,w
  3024     071A  1683               	bsf	3,5	;RP0=1, select bank1
  3025     071B  1303               	bcf	3,6	;RP1=0, select bank1
  3026     071C  00B0               	movwf	(??___fltol^(0+128)+3)
  3027     071D  301F               	movlw	31
  3028     071E                     u2995:
  3029     071E  1003               	clrc
  3030     071F  0CB0               	rrf	(??___fltol^(0+128)+3),f
  3031     0720  0CAF               	rrf	(??___fltol^(0+128)+2),f
  3032     0721  0CAE               	rrf	(??___fltol^(0+128)+1),f
  3033     0722  0CAD               	rrf	??___fltol^(0+128),f
  3034     0723                     u2990:
  3035     0723  3EFF               	addlw	-1
  3036     0724  1D03               	skipz
  3037     0725  2F1E               	goto	u2995
  3038     0726  082D               	movf	??___fltol^(0+128),w
  3039     0727  00B1               	movwf	___fltol@sign1^(0+128)
  3040     0728                     l2265:
  3041     0728  1283               	bcf	3,5	;RP0=0, select bank0
  3042     0729  1303               	bcf	3,6	;RP1=0, select bank0
  3043     072A  17D4               	bsf	___fltol@f1+2,7
  3044     072B                     l2267:
  3045     072B  30FF               	movlw	255
  3046     072C  05D2               	andwf	___fltol@f1,f
  3047     072D  30FF               	movlw	255
  3048     072E  05D3               	andwf	___fltol@f1+1,f
  3049     072F  30FF               	movlw	255
  3050     0730  05D4               	andwf	___fltol@f1+2,f
  3051     0731  3000               	movlw	0
  3052     0732  05D5               	andwf	___fltol@f1+3,f
  3053     0733                     l2269:
  3054     0733  3096               	movlw	150
  3055     0734  1683               	bsf	3,5	;RP0=1, select bank1
  3056     0735  1303               	bcf	3,6	;RP1=0, select bank1
  3057     0736  02B2               	subwf	___fltol@exp1^(0+128),f
  3058     0737                     l2271:
  3059     0737  1FB2               	btfss	___fltol@exp1^(0+128),7
  3060     0738  2F3A               	goto	u3001
  3061     0739  2F3B               	goto	u3000
  3062     073A                     u3001:
  3063     073A  2F57               	goto	l2281
  3064     073B                     u3000:
  3065     073B                     l2273:
  3066     073B  0832               	movf	___fltol@exp1^(0+128),w
  3067     073C  3A80               	xorlw	128
  3068     073D  3E97               	addlw	151
  3069     073E  1803               	skipnc
  3070     073F  2F41               	goto	u3011
  3071     0740  2F42               	goto	u3010
  3072     0741                     u3011:
  3073     0741  2F43               	goto	l2279
  3074     0742                     u3010:
  3075     0742  2EFA               	goto	l2259
  3076     0743                     l2279:
  3077     0743  3001               	movlw	1
  3078     0744                     u3025:
  3079     0744  1003               	clrc
  3080     0745  1283               	bcf	3,5	;RP0=0, select bank0
  3081     0746  1303               	bcf	3,6	;RP1=0, select bank0
  3082     0747  0CD5               	rrf	___fltol@f1+3,f
  3083     0748  0CD4               	rrf	___fltol@f1+2,f
  3084     0749  0CD3               	rrf	___fltol@f1+1,f
  3085     074A  0CD2               	rrf	___fltol@f1,f
  3086     074B  3EFF               	addlw	-1
  3087     074C  1D03               	skipz
  3088     074D  2F44               	goto	u3025
  3089     074E  3001               	movlw	1
  3090     074F  1683               	bsf	3,5	;RP0=1, select bank1
  3091     0750  1303               	bcf	3,6	;RP1=0, select bank1
  3092     0751  07B2               	addwf	___fltol@exp1^(0+128),f
  3093     0752  1D03               	btfss	3,2
  3094     0753  2F55               	goto	u3031
  3095     0754  2F56               	goto	u3030
  3096     0755                     u3031:
  3097     0755  2F43               	goto	l2279
  3098     0756                     u3030:
  3099     0756  2F72               	goto	l2289
  3100     0757                     l2281:
  3101     0757  3020               	movlw	32
  3102     0758  0232               	subwf	___fltol@exp1^(0+128),w
  3103     0759  1C03               	skipc
  3104     075A  2F5C               	goto	u3041
  3105     075B  2F5D               	goto	u3040
  3106     075C                     u3041:
  3107     075C  2F6D               	goto	l476
  3108     075D                     u3040:
  3109     075D  2EFA               	goto	l2259
  3110     075E                     l2287:
  3111     075E  3001               	movlw	1
  3112     075F  00AD               	movwf	??___fltol^(0+128)
  3113     0760                     u3055:
  3114     0760  1003               	clrc
  3115     0761  1283               	bcf	3,5	;RP0=0, select bank0
  3116     0762  1303               	bcf	3,6	;RP1=0, select bank0
  3117     0763  0DD2               	rlf	___fltol@f1,f
  3118     0764  0DD3               	rlf	___fltol@f1+1,f
  3119     0765  0DD4               	rlf	___fltol@f1+2,f
  3120     0766  0DD5               	rlf	___fltol@f1+3,f
  3121     0767  1683               	bsf	3,5	;RP0=1, select bank1
  3122     0768  1303               	bcf	3,6	;RP1=0, select bank1
  3123     0769  0BAD               	decfsz	??___fltol^(0+128),f
  3124     076A  2F60               	goto	u3055
  3125     076B  3001               	movlw	1
  3126     076C  02B2               	subwf	___fltol@exp1^(0+128),f
  3127     076D                     l476:
  3128     076D  0832               	movf	___fltol@exp1^(0+128),w
  3129     076E  1D03               	btfss	3,2
  3130     076F  2F71               	goto	u3061
  3131     0770  2F72               	goto	u3060
  3132     0771                     u3061:
  3133     0771  2F5E               	goto	l2287
  3134     0772                     u3060:
  3135     0772                     l2289:
  3136     0772  0831               	movf	___fltol@sign1^(0+128),w
  3137     0773  1903               	btfsc	3,2
  3138     0774  2F76               	goto	u3071
  3139     0775  2F77               	goto	u3070
  3140     0776                     u3071:
  3141     0776  2F84               	goto	l479
  3142     0777                     u3070:
  3143     0777                     l2291:
  3144     0777  1283               	bcf	3,5	;RP0=0, select bank0
  3145     0778  1303               	bcf	3,6	;RP1=0, select bank0
  3146     0779  09D2               	comf	___fltol@f1,f
  3147     077A  09D3               	comf	___fltol@f1+1,f
  3148     077B  09D4               	comf	___fltol@f1+2,f
  3149     077C  09D5               	comf	___fltol@f1+3,f
  3150     077D  0AD2               	incf	___fltol@f1,f
  3151     077E  1903               	skipnz
  3152     077F  0AD3               	incf	___fltol@f1+1,f
  3153     0780  1903               	skipnz
  3154     0781  0AD4               	incf	___fltol@f1+2,f
  3155     0782  1903               	skipnz
  3156     0783  0AD5               	incf	___fltol@f1+3,f
  3157     0784                     l479:
  3158     0784                     l469:
  3159     0784  0008               	return
  3160     0785                     __end_of___fltol:
  3161                           
  3162                           	psect	text16
  3163     001E                     __ptext16:	
  3164 ;; *************** function ___fldiv *****************
  3165 ;; Defined at:
  3166 ;;		line 8 in file "C:\Program Files\Microchip\xc8\v3.00\pic\sources\c99\common\sprcdiv.c"
  3167 ;; Parameters:    Size  Location     Type
  3168 ;;  a               4   37[BANK0 ] long 
  3169 ;;  b               4   41[BANK0 ] long 
  3170 ;; Auto vars:     Size  Location     Type
  3171 ;;  grs             4    7[BANK1 ] unsigned long 
  3172 ;;  rem             4    0[BANK1 ] unsigned long 
  3173 ;;  new_exp         2    5[BANK1 ] short 
  3174 ;;  aexp            1   12[BANK1 ] unsigned char 
  3175 ;;  bexp            1   11[BANK1 ] unsigned char 
  3176 ;;  sign            1    4[BANK1 ] unsigned char 
  3177 ;; Return value:  Size  Location     Type
  3178 ;;                  4   37[BANK0 ] unsigned char 
  3179 ;; Registers used:
  3180 ;;		wreg, status,2, status,0, btemp+1
  3181 ;; Tracked objects:
  3182 ;;		On entry : 0/0
  3183 ;;		On exit  : 0/0
  3184 ;;		Unchanged: 0/0
  3185 ;; Data sizes:     COMMON   BANK0   BANK1   BANK3   BANK2
  3186 ;;      Params:         0       8       0       0       0
  3187 ;;      Locals:         0       0      13       0       0
  3188 ;;      Temps:          0       5       0       0       0
  3189 ;;      Totals:         0      13      13       0       0
  3190 ;;Total ram usage:       26 bytes
  3191 ;; Hardware stack levels used: 1
  3192 ;; Hardware stack levels required when called: 6
  3193 ;; This function calls:
  3194 ;;		Nothing
  3195 ;; This function is called by:
  3196 ;;		_Read_Ultrasonic
  3197 ;; This function uses a non-reentrant model
  3198 ;;
  3199                           
  3200     001E                     ___fldiv:	
  3201                           ;psect for function ___fldiv
  3202                           
  3203     001E                     l1755:	
  3204                           ;incstack = 0
  3205                           ; Regs used in ___fldiv: [wreg+status,2+status,0+btemp+1]
  3206                           
  3207     001E  1283               	bcf	3,5	;RP0=0, select bank0
  3208     001F  1303               	bcf	3,6	;RP1=0, select bank0
  3209     0020  084C               	movf	___fldiv@b+3,w
  3210     0021  1683               	bsf	3,5	;RP0=1, select bank1
  3211     0022  1303               	bcf	3,6	;RP1=0, select bank1
  3212     0023  00A4               	movwf	___fldiv@sign^(0+128)
  3213     0024                     l1757:
  3214     0024  3080               	movlw	128
  3215     0025  05A4               	andwf	___fldiv@sign^(0+128),f
  3216     0026                     l1759:
  3217     0026  1283               	bcf	3,5	;RP0=0, select bank0
  3218     0027  1303               	bcf	3,6	;RP1=0, select bank0
  3219     0028  084C               	movf	___fldiv@b+3,w
  3220     0029  00CD               	movwf	??___fldiv
  3221     002A  074D               	addwf	??___fldiv,w
  3222     002B  1683               	bsf	3,5	;RP0=1, select bank1
  3223     002C  1303               	bcf	3,6	;RP1=0, select bank1
  3224     002D  00AB               	movwf	___fldiv@bexp^(0+128)
  3225     002E                     l1761:
  3226     002E  1283               	bcf	3,5	;RP0=0, select bank0
  3227     002F  1303               	bcf	3,6	;RP1=0, select bank0
  3228     0030  1FCB               	btfss	___fldiv@b+2,7
  3229     0031  2833               	goto	u2071
  3230     0032  2834               	goto	u2070
  3231     0033                     u2071:
  3232     0033  2837               	goto	l1765
  3233     0034                     u2070:
  3234     0034                     l1763:
  3235     0034  1683               	bsf	3,5	;RP0=1, select bank1
  3236     0035  1303               	bcf	3,6	;RP1=0, select bank1
  3237     0036  142B               	bsf	___fldiv@bexp^(0+128),0
  3238     0037                     l1765:
  3239     0037  1683               	bsf	3,5	;RP0=1, select bank1
  3240     0038  1303               	bcf	3,6	;RP1=0, select bank1
  3241     0039  082B               	movf	___fldiv@bexp^(0+128),w
  3242     003A  1903               	btfsc	3,2
  3243     003B  283D               	goto	u2081
  3244     003C  283E               	goto	u2080
  3245     003D                     u2081:
  3246     003D  2851               	goto	l1775
  3247     003E                     u2080:
  3248     003E                     l1767:
  3249     003E  0A2B               	incf	___fldiv@bexp^(0+128),w
  3250     003F  1D03               	btfss	3,2
  3251     0040  2842               	goto	u2091
  3252     0041  2843               	goto	u2090
  3253     0042                     u2091:
  3254     0042  284D               	goto	l1771
  3255     0043                     u2090:
  3256     0043                     l1769:
  3257     0043  3000               	movlw	0
  3258     0044  1283               	bcf	3,5	;RP0=0, select bank0
  3259     0045  1303               	bcf	3,6	;RP1=0, select bank0
  3260     0046  00CC               	movwf	___fldiv@b+3
  3261     0047  3000               	movlw	0
  3262     0048  00CB               	movwf	___fldiv@b+2
  3263     0049  3000               	movlw	0
  3264     004A  00CA               	movwf	___fldiv@b+1
  3265     004B  3000               	movlw	0
  3266     004C  00C9               	movwf	___fldiv@b
  3267     004D                     l1771:
  3268     004D  1283               	bcf	3,5	;RP0=0, select bank0
  3269     004E  17CB               	bsf	___fldiv@b+2,7
  3270     004F                     l1773:
  3271     004F  01CC               	clrf	___fldiv@b+3
  3272     0050  285B               	goto	l1777
  3273     0051                     l1775:
  3274     0051  3000               	movlw	0
  3275     0052  1283               	bcf	3,5	;RP0=0, select bank0
  3276     0053  1303               	bcf	3,6	;RP1=0, select bank0
  3277     0054  00CC               	movwf	___fldiv@b+3
  3278     0055  3000               	movlw	0
  3279     0056  00CB               	movwf	___fldiv@b+2
  3280     0057  3000               	movlw	0
  3281     0058  00CA               	movwf	___fldiv@b+1
  3282     0059  3000               	movlw	0
  3283     005A  00C9               	movwf	___fldiv@b
  3284     005B                     l1777:
  3285     005B  0848               	movf	___fldiv@a+3,w
  3286     005C  3980               	andlw	128
  3287     005D  1683               	bsf	3,5	;RP0=1, select bank1
  3288     005E  1303               	bcf	3,6	;RP1=0, select bank1
  3289     005F  06A4               	xorwf	___fldiv@sign^(0+128),f
  3290     0060                     l1779:
  3291     0060  1283               	bcf	3,5	;RP0=0, select bank0
  3292     0061  1303               	bcf	3,6	;RP1=0, select bank0
  3293     0062  0848               	movf	___fldiv@a+3,w
  3294     0063  00CD               	movwf	??___fldiv
  3295     0064  074D               	addwf	??___fldiv,w
  3296     0065  1683               	bsf	3,5	;RP0=1, select bank1
  3297     0066  1303               	bcf	3,6	;RP1=0, select bank1
  3298     0067  00AC               	movwf	___fldiv@aexp^(0+128)
  3299     0068                     l1781:
  3300     0068  1283               	bcf	3,5	;RP0=0, select bank0
  3301     0069  1303               	bcf	3,6	;RP1=0, select bank0
  3302     006A  1FC7               	btfss	___fldiv@a+2,7
  3303     006B  286D               	goto	u2101
  3304     006C  286E               	goto	u2100
  3305     006D                     u2101:
  3306     006D  2871               	goto	l1785
  3307     006E                     u2100:
  3308     006E                     l1783:
  3309     006E  1683               	bsf	3,5	;RP0=1, select bank1
  3310     006F  1303               	bcf	3,6	;RP1=0, select bank1
  3311     0070  142C               	bsf	___fldiv@aexp^(0+128),0
  3312     0071                     l1785:
  3313     0071  1683               	bsf	3,5	;RP0=1, select bank1
  3314     0072  1303               	bcf	3,6	;RP1=0, select bank1
  3315     0073  082C               	movf	___fldiv@aexp^(0+128),w
  3316     0074  1903               	btfsc	3,2
  3317     0075  2877               	goto	u2111
  3318     0076  2878               	goto	u2110
  3319     0077                     u2111:
  3320     0077  288B               	goto	l1795
  3321     0078                     u2110:
  3322     0078                     l1787:
  3323     0078  0A2C               	incf	___fldiv@aexp^(0+128),w
  3324     0079  1D03               	btfss	3,2
  3325     007A  287C               	goto	u2121
  3326     007B  287D               	goto	u2120
  3327     007C                     u2121:
  3328     007C  2887               	goto	l1791
  3329     007D                     u2120:
  3330     007D                     l1789:
  3331     007D  3000               	movlw	0
  3332     007E  1283               	bcf	3,5	;RP0=0, select bank0
  3333     007F  1303               	bcf	3,6	;RP1=0, select bank0
  3334     0080  00C8               	movwf	___fldiv@a+3
  3335     0081  3000               	movlw	0
  3336     0082  00C7               	movwf	___fldiv@a+2
  3337     0083  3000               	movlw	0
  3338     0084  00C6               	movwf	___fldiv@a+1
  3339     0085  3000               	movlw	0
  3340     0086  00C5               	movwf	___fldiv@a
  3341     0087                     l1791:
  3342     0087  1283               	bcf	3,5	;RP0=0, select bank0
  3343     0088  17C7               	bsf	___fldiv@a+2,7
  3344     0089                     l1793:
  3345     0089  01C8               	clrf	___fldiv@a+3
  3346     008A  2895               	goto	l632
  3347     008B                     l1795:
  3348     008B  3000               	movlw	0
  3349     008C  1283               	bcf	3,5	;RP0=0, select bank0
  3350     008D  1303               	bcf	3,6	;RP1=0, select bank0
  3351     008E  00C8               	movwf	___fldiv@a+3
  3352     008F  3000               	movlw	0
  3353     0090  00C7               	movwf	___fldiv@a+2
  3354     0091  3000               	movlw	0
  3355     0092  00C6               	movwf	___fldiv@a+1
  3356     0093  3000               	movlw	0
  3357     0094  00C5               	movwf	___fldiv@a
  3358     0095                     l632:
  3359     0095  0848               	movf	___fldiv@a+3,w
  3360     0096  0447               	iorwf	___fldiv@a+2,w
  3361     0097  0446               	iorwf	___fldiv@a+1,w
  3362     0098  0445               	iorwf	___fldiv@a,w
  3363     0099  1D03               	skipz
  3364     009A  289C               	goto	u2131
  3365     009B  289D               	goto	u2130
  3366     009C                     u2131:
  3367     009C  28B8               	goto	l1805
  3368     009D                     u2130:
  3369     009D                     l1797:
  3370     009D  3000               	movlw	0
  3371     009E  00CC               	movwf	___fldiv@b+3
  3372     009F  3000               	movlw	0
  3373     00A0  00CB               	movwf	___fldiv@b+2
  3374     00A1  3000               	movlw	0
  3375     00A2  00CA               	movwf	___fldiv@b+1
  3376     00A3  3000               	movlw	0
  3377     00A4  00C9               	movwf	___fldiv@b
  3378     00A5  3080               	movlw	128
  3379     00A6  04CB               	iorwf	___fldiv@b+2,f
  3380     00A7  307F               	movlw	127
  3381     00A8  04CC               	iorwf	___fldiv@b+3,f
  3382     00A9                     l1799:
  3383     00A9  1683               	bsf	3,5	;RP0=1, select bank1
  3384     00AA  1303               	bcf	3,6	;RP1=0, select bank1
  3385     00AB  0824               	movf	___fldiv@sign^(0+128),w
  3386     00AC  1283               	bcf	3,5	;RP0=0, select bank0
  3387     00AD  1303               	bcf	3,6	;RP1=0, select bank0
  3388     00AE  04CC               	iorwf	___fldiv@b+3,f
  3389     00AF                     l1801:
  3390     00AF  084C               	movf	___fldiv@b+3,w
  3391     00B0  00C8               	movwf	?___fldiv+3
  3392     00B1  084B               	movf	___fldiv@b+2,w
  3393     00B2  00C7               	movwf	?___fldiv+2
  3394     00B3  084A               	movf	___fldiv@b+1,w
  3395     00B4  00C6               	movwf	?___fldiv+1
  3396     00B5  0849               	movf	___fldiv@b,w
  3397     00B6  00C5               	movwf	?___fldiv
  3398     00B7  2AA2               	goto	l634
  3399     00B8                     l1805:
  3400     00B8  1683               	bsf	3,5	;RP0=1, select bank1
  3401     00B9  1303               	bcf	3,6	;RP1=0, select bank1
  3402     00BA  082B               	movf	___fldiv@bexp^(0+128),w
  3403     00BB  1D03               	btfss	3,2
  3404     00BC  28BE               	goto	u2141
  3405     00BD  28BF               	goto	u2140
  3406     00BE                     u2141:
  3407     00BE  28CA               	goto	l1811
  3408     00BF                     u2140:
  3409     00BF                     l1807:
  3410     00BF  3000               	movlw	0
  3411     00C0  1283               	bcf	3,5	;RP0=0, select bank0
  3412     00C1  1303               	bcf	3,6	;RP1=0, select bank0
  3413     00C2  00C8               	movwf	?___fldiv+3
  3414     00C3  3000               	movlw	0
  3415     00C4  00C7               	movwf	?___fldiv+2
  3416     00C5  3000               	movlw	0
  3417     00C6  00C6               	movwf	?___fldiv+1
  3418     00C7  3000               	movlw	0
  3419     00C8  00C5               	movwf	?___fldiv
  3420     00C9  2AA2               	goto	l634
  3421     00CA                     l1811:
  3422     00CA  082B               	movf	___fldiv@bexp^(0+128),w
  3423     00CB  1283               	bcf	3,5	;RP0=0, select bank0
  3424     00CC  1303               	bcf	3,6	;RP1=0, select bank0
  3425     00CD  00CD               	movwf	??___fldiv
  3426     00CE  01CE               	clrf	??___fldiv+1
  3427     00CF  084E               	movf	??___fldiv+1,w
  3428     00D0  00D0               	movwf	??___fldiv+3
  3429     00D1  1683               	bsf	3,5	;RP0=1, select bank1
  3430     00D2  1303               	bcf	3,6	;RP1=0, select bank1
  3431     00D3  082C               	movf	___fldiv@aexp^(0+128),w
  3432     00D4  1283               	bcf	3,5	;RP0=0, select bank0
  3433     00D5  1303               	bcf	3,6	;RP1=0, select bank0
  3434     00D6  024D               	subwf	??___fldiv,w
  3435     00D7  00CF               	movwf	??___fldiv+2
  3436     00D8  1C03               	skipc
  3437     00D9  03D0               	decf	??___fldiv+3,f
  3438     00DA  084F               	movf	??___fldiv+2,w
  3439     00DB  3E7F               	addlw	127
  3440     00DC  1683               	bsf	3,5	;RP0=1, select bank1
  3441     00DD  1303               	bcf	3,6	;RP1=0, select bank1
  3442     00DE  00A5               	movwf	___fldiv@new_exp^(0+128)
  3443     00DF  1283               	bcf	3,5	;RP0=0, select bank0
  3444     00E0  1303               	bcf	3,6	;RP1=0, select bank0
  3445     00E1  0850               	movf	??___fldiv+3,w
  3446     00E2  1803               	skipnc
  3447     00E3  3E01               	addlw	1
  3448     00E4  3E00               	addlw	0
  3449     00E5  1683               	bsf	3,5	;RP0=1, select bank1
  3450     00E6  1303               	bcf	3,6	;RP1=0, select bank1
  3451     00E7  00A6               	movwf	(___fldiv@new_exp+1)^(0+128)
  3452     00E8                     l1813:
  3453     00E8  1283               	bcf	3,5	;RP0=0, select bank0
  3454     00E9  1303               	bcf	3,6	;RP1=0, select bank0
  3455     00EA  084C               	movf	___fldiv@b+3,w
  3456     00EB  1683               	bsf	3,5	;RP0=1, select bank1
  3457     00EC  1303               	bcf	3,6	;RP1=0, select bank1
  3458     00ED  00A3               	movwf	(___fldiv@rem+3)^(0+128)
  3459     00EE  1283               	bcf	3,5	;RP0=0, select bank0
  3460     00EF  1303               	bcf	3,6	;RP1=0, select bank0
  3461     00F0  084B               	movf	___fldiv@b+2,w
  3462     00F1  1683               	bsf	3,5	;RP0=1, select bank1
  3463     00F2  1303               	bcf	3,6	;RP1=0, select bank1
  3464     00F3  00A2               	movwf	(___fldiv@rem+2)^(0+128)
  3465     00F4  1283               	bcf	3,5	;RP0=0, select bank0
  3466     00F5  1303               	bcf	3,6	;RP1=0, select bank0
  3467     00F6  084A               	movf	___fldiv@b+1,w
  3468     00F7  1683               	bsf	3,5	;RP0=1, select bank1
  3469     00F8  1303               	bcf	3,6	;RP1=0, select bank1
  3470     00F9  00A1               	movwf	(___fldiv@rem+1)^(0+128)
  3471     00FA  1283               	bcf	3,5	;RP0=0, select bank0
  3472     00FB  1303               	bcf	3,6	;RP1=0, select bank0
  3473     00FC  0849               	movf	___fldiv@b,w
  3474     00FD  1683               	bsf	3,5	;RP0=1, select bank1
  3475     00FE  1303               	bcf	3,6	;RP1=0, select bank1
  3476     00FF  00A0               	movwf	___fldiv@rem^(0+128)
  3477     0100                     l1815:
  3478     0100  3000               	movlw	0
  3479     0101  1283               	bcf	3,5	;RP0=0, select bank0
  3480     0102  1303               	bcf	3,6	;RP1=0, select bank0
  3481     0103  00CC               	movwf	___fldiv@b+3
  3482     0104  3000               	movlw	0
  3483     0105  00CB               	movwf	___fldiv@b+2
  3484     0106  3000               	movlw	0
  3485     0107  00CA               	movwf	___fldiv@b+1
  3486     0108  3000               	movlw	0
  3487     0109  00C9               	movwf	___fldiv@b
  3488     010A                     l1817:
  3489     010A  3000               	movlw	0
  3490     010B  1683               	bsf	3,5	;RP0=1, select bank1
  3491     010C  1303               	bcf	3,6	;RP1=0, select bank1
  3492     010D  00AA               	movwf	(___fldiv@grs+3)^(0+128)
  3493     010E  3000               	movlw	0
  3494     010F  00A9               	movwf	(___fldiv@grs+2)^(0+128)
  3495     0110  3000               	movlw	0
  3496     0111  00A8               	movwf	(___fldiv@grs+1)^(0+128)
  3497     0112  3000               	movlw	0
  3498     0113  00A7               	movwf	___fldiv@grs^(0+128)
  3499     0114                     l1819:
  3500     0114  01AC               	clrf	___fldiv@aexp^(0+128)
  3501     0115  2996               	goto	l1839
  3502     0116                     l1821:
  3503     0116  082C               	movf	___fldiv@aexp^(0+128),w
  3504     0117  1903               	btfsc	3,2
  3505     0118  291A               	goto	u2151
  3506     0119  291B               	goto	u2150
  3507     011A                     u2151:
  3508     011A  294A               	goto	l1831
  3509     011B                     u2150:
  3510     011B                     l1823:
  3511     011B  3001               	movlw	1
  3512     011C  1283               	bcf	3,5	;RP0=0, select bank0
  3513     011D  1303               	bcf	3,6	;RP1=0, select bank0
  3514     011E  00CD               	movwf	??___fldiv
  3515     011F                     u2165:
  3516     011F  1003               	clrc
  3517     0120  1683               	bsf	3,5	;RP0=1, select bank1
  3518     0121  1303               	bcf	3,6	;RP1=0, select bank1
  3519     0122  0DA0               	rlf	___fldiv@rem^(0+128),f
  3520     0123  0DA1               	rlf	(___fldiv@rem+1)^(0+128),f
  3521     0124  0DA2               	rlf	(___fldiv@rem+2)^(0+128),f
  3522     0125  0DA3               	rlf	(___fldiv@rem+3)^(0+128),f
  3523     0126  1283               	bcf	3,5	;RP0=0, select bank0
  3524     0127  1303               	bcf	3,6	;RP1=0, select bank0
  3525     0128  0BCD               	decfsz	??___fldiv,f
  3526     0129  291F               	goto	u2165
  3527     012A  3001               	movlw	1
  3528     012B  00CD               	movwf	??___fldiv
  3529     012C                     u2175:
  3530     012C  1003               	clrc
  3531     012D  0DC9               	rlf	___fldiv@b,f
  3532     012E  0DCA               	rlf	___fldiv@b+1,f
  3533     012F  0DCB               	rlf	___fldiv@b+2,f
  3534     0130  0DCC               	rlf	___fldiv@b+3,f
  3535     0131  0BCD               	decfsz	??___fldiv,f
  3536     0132  292C               	goto	u2175
  3537     0133                     l1825:
  3538     0133  1683               	bsf	3,5	;RP0=1, select bank1
  3539     0134  1303               	bcf	3,6	;RP1=0, select bank1
  3540     0135  1FAA               	btfss	(___fldiv@grs+3)^(0+128),7
  3541     0136  2938               	goto	u2181
  3542     0137  2939               	goto	u2180
  3543     0138                     u2181:
  3544     0138  293C               	goto	l1829
  3545     0139                     u2180:
  3546     0139                     l1827:
  3547     0139  1283               	bcf	3,5	;RP0=0, select bank0
  3548     013A  1303               	bcf	3,6	;RP1=0, select bank0
  3549     013B  1449               	bsf	___fldiv@b,0
  3550     013C                     l1829:
  3551     013C  3001               	movlw	1
  3552     013D  1283               	bcf	3,5	;RP0=0, select bank0
  3553     013E  00CD               	movwf	??___fldiv
  3554     013F                     u2195:
  3555     013F  1003               	clrc
  3556     0140  1683               	bsf	3,5	;RP0=1, select bank1
  3557     0141  1303               	bcf	3,6	;RP1=0, select bank1
  3558     0142  0DA7               	rlf	___fldiv@grs^(0+128),f
  3559     0143  0DA8               	rlf	(___fldiv@grs+1)^(0+128),f
  3560     0144  0DA9               	rlf	(___fldiv@grs+2)^(0+128),f
  3561     0145  0DAA               	rlf	(___fldiv@grs+3)^(0+128),f
  3562     0146  1283               	bcf	3,5	;RP0=0, select bank0
  3563     0147  1303               	bcf	3,6	;RP1=0, select bank0
  3564     0148  0BCD               	decfsz	??___fldiv,f
  3565     0149  293F               	goto	u2195
  3566     014A                     l1831:
  3567     014A  1283               	bcf	3,5	;RP0=0, select bank0
  3568     014B  0848               	movf	___fldiv@a+3,w
  3569     014C  1683               	bsf	3,5	;RP0=1, select bank1
  3570     014D  1303               	bcf	3,6	;RP1=0, select bank1
  3571     014E  0223               	subwf	(___fldiv@rem+3)^(0+128),w
  3572     014F  1D03               	skipz
  3573     0150  2967               	goto	u2205
  3574     0151  1283               	bcf	3,5	;RP0=0, select bank0
  3575     0152  1303               	bcf	3,6	;RP1=0, select bank0
  3576     0153  0847               	movf	___fldiv@a+2,w
  3577     0154  1683               	bsf	3,5	;RP0=1, select bank1
  3578     0155  1303               	bcf	3,6	;RP1=0, select bank1
  3579     0156  0222               	subwf	(___fldiv@rem+2)^(0+128),w
  3580     0157  1D03               	skipz
  3581     0158  2967               	goto	u2205
  3582     0159  1283               	bcf	3,5	;RP0=0, select bank0
  3583     015A  1303               	bcf	3,6	;RP1=0, select bank0
  3584     015B  0846               	movf	___fldiv@a+1,w
  3585     015C  1683               	bsf	3,5	;RP0=1, select bank1
  3586     015D  1303               	bcf	3,6	;RP1=0, select bank1
  3587     015E  0221               	subwf	(___fldiv@rem+1)^(0+128),w
  3588     015F  1D03               	skipz
  3589     0160  2967               	goto	u2205
  3590     0161  1283               	bcf	3,5	;RP0=0, select bank0
  3591     0162  1303               	bcf	3,6	;RP1=0, select bank0
  3592     0163  0845               	movf	___fldiv@a,w
  3593     0164  1683               	bsf	3,5	;RP0=1, select bank1
  3594     0165  1303               	bcf	3,6	;RP1=0, select bank1
  3595     0166  0220               	subwf	___fldiv@rem^(0+128),w
  3596     0167                     u2205:
  3597     0167  1C03               	skipc
  3598     0168  296A               	goto	u2201
  3599     0169  296B               	goto	u2200
  3600     016A                     u2201:
  3601     016A  2994               	goto	l1837
  3602     016B                     u2200:
  3603     016B                     l1833:
  3604     016B  172A               	bsf	(___fldiv@grs^(0+128)+3),6
  3605     016C                     l1835:
  3606     016C  1283               	bcf	3,5	;RP0=0, select bank0
  3607     016D  1303               	bcf	3,6	;RP1=0, select bank0
  3608     016E  0845               	movf	___fldiv@a,w
  3609     016F  1683               	bsf	3,5	;RP0=1, select bank1
  3610     0170  1303               	bcf	3,6	;RP1=0, select bank1
  3611     0171  02A0               	subwf	___fldiv@rem^(0+128),f
  3612     0172  1283               	bcf	3,5	;RP0=0, select bank0
  3613     0173  1303               	bcf	3,6	;RP1=0, select bank0
  3614     0174  0846               	movf	___fldiv@a+1,w
  3615     0175  1C03               	skipc
  3616     0176  0F46               	incfsz	___fldiv@a+1,w
  3617     0177  2979               	goto	u2215
  3618     0178  297C               	goto	u2216
  3619     0179                     u2215:
  3620     0179  1683               	bsf	3,5	;RP0=1, select bank1
  3621     017A  1303               	bcf	3,6	;RP1=0, select bank1
  3622     017B  02A1               	subwf	(___fldiv@rem+1)^(0+128),f
  3623     017C                     u2216:
  3624     017C  1283               	bcf	3,5	;RP0=0, select bank0
  3625     017D  1303               	bcf	3,6	;RP1=0, select bank0
  3626     017E  0847               	movf	___fldiv@a+2,w
  3627     017F  1C03               	skipc
  3628     0180  0F47               	incfsz	___fldiv@a+2,w
  3629     0181  2983               	goto	u2217
  3630     0182  2986               	goto	u2218
  3631     0183                     u2217:
  3632     0183  1683               	bsf	3,5	;RP0=1, select bank1
  3633     0184  1303               	bcf	3,6	;RP1=0, select bank1
  3634     0185  02A2               	subwf	(___fldiv@rem+2)^(0+128),f
  3635     0186                     u2218:
  3636     0186  1283               	bcf	3,5	;RP0=0, select bank0
  3637     0187  1303               	bcf	3,6	;RP1=0, select bank0
  3638     0188  0848               	movf	___fldiv@a+3,w
  3639     0189  1C03               	skipc
  3640     018A  0F48               	incfsz	___fldiv@a+3,w
  3641     018B  298D               	goto	u2219
  3642     018C  2990               	goto	u2210
  3643     018D                     u2219:
  3644     018D  1683               	bsf	3,5	;RP0=1, select bank1
  3645     018E  1303               	bcf	3,6	;RP1=0, select bank1
  3646     018F  02A3               	subwf	(___fldiv@rem+3)^(0+128),f
  3647     0190                     u2210:
  3648     0190  1283               	bcf	3,5	;RP0=0, select bank0
  3649     0191  1303               	bcf	3,6	;RP1=0, select bank0
  3650     0192  1683               	bsf	3,5	;RP0=1, select bank1
  3651     0193  1303               	bcf	3,6	;RP1=0, select bank1
  3652     0194                     l1837:
  3653     0194  3001               	movlw	1
  3654     0195  07AC               	addwf	___fldiv@aexp^(0+128),f
  3655     0196                     l1839:
  3656     0196  301A               	movlw	26
  3657     0197  022C               	subwf	___fldiv@aexp^(0+128),w
  3658     0198  1C03               	skipc
  3659     0199  299B               	goto	u2221
  3660     019A  299C               	goto	u2220
  3661     019B                     u2221:
  3662     019B  2916               	goto	l1821
  3663     019C                     u2220:
  3664     019C                     l1841:
  3665     019C  0823               	movf	(___fldiv@rem+3)^(0+128),w
  3666     019D  0422               	iorwf	(___fldiv@rem+2)^(0+128),w
  3667     019E  0421               	iorwf	(___fldiv@rem+1)^(0+128),w
  3668     019F  0420               	iorwf	___fldiv@rem^(0+128),w
  3669     01A0  1903               	skipnz
  3670     01A1  29A3               	goto	u2231
  3671     01A2  29A4               	goto	u2230
  3672     01A3                     u2231:
  3673     01A3  29CE               	goto	l1855
  3674     01A4                     u2230:
  3675     01A4                     l1843:
  3676     01A4  1427               	bsf	___fldiv@grs^(0+128),0
  3677     01A5  29CE               	goto	l1855
  3678     01A6                     l1845:
  3679     01A6  3001               	movlw	1
  3680     01A7  00CD               	movwf	??___fldiv
  3681     01A8                     u2245:
  3682     01A8  1003               	clrc
  3683     01A9  0DC9               	rlf	___fldiv@b,f
  3684     01AA  0DCA               	rlf	___fldiv@b+1,f
  3685     01AB  0DCB               	rlf	___fldiv@b+2,f
  3686     01AC  0DCC               	rlf	___fldiv@b+3,f
  3687     01AD  0BCD               	decfsz	??___fldiv,f
  3688     01AE  29A8               	goto	u2245
  3689     01AF                     l1847:
  3690     01AF  1683               	bsf	3,5	;RP0=1, select bank1
  3691     01B0  1303               	bcf	3,6	;RP1=0, select bank1
  3692     01B1  1FAA               	btfss	(___fldiv@grs+3)^(0+128),7
  3693     01B2  29B4               	goto	u2251
  3694     01B3  29B5               	goto	u2250
  3695     01B4                     u2251:
  3696     01B4  29B8               	goto	l1851
  3697     01B5                     u2250:
  3698     01B5                     l1849:
  3699     01B5  1283               	bcf	3,5	;RP0=0, select bank0
  3700     01B6  1303               	bcf	3,6	;RP1=0, select bank0
  3701     01B7  1449               	bsf	___fldiv@b,0
  3702     01B8                     l1851:
  3703     01B8  3001               	movlw	1
  3704     01B9  1283               	bcf	3,5	;RP0=0, select bank0
  3705     01BA  00CD               	movwf	??___fldiv
  3706     01BB                     u2265:
  3707     01BB  1003               	clrc
  3708     01BC  1683               	bsf	3,5	;RP0=1, select bank1
  3709     01BD  1303               	bcf	3,6	;RP1=0, select bank1
  3710     01BE  0DA7               	rlf	___fldiv@grs^(0+128),f
  3711     01BF  0DA8               	rlf	(___fldiv@grs+1)^(0+128),f
  3712     01C0  0DA9               	rlf	(___fldiv@grs+2)^(0+128),f
  3713     01C1  0DAA               	rlf	(___fldiv@grs+3)^(0+128),f
  3714     01C2  1283               	bcf	3,5	;RP0=0, select bank0
  3715     01C3  1303               	bcf	3,6	;RP1=0, select bank0
  3716     01C4  0BCD               	decfsz	??___fldiv,f
  3717     01C5  29BB               	goto	u2265
  3718     01C6                     l1853:
  3719     01C6  30FF               	movlw	255
  3720     01C7  1683               	bsf	3,5	;RP0=1, select bank1
  3721     01C8  1303               	bcf	3,6	;RP1=0, select bank1
  3722     01C9  07A5               	addwf	___fldiv@new_exp^(0+128),f
  3723     01CA  1803               	skipnc
  3724     01CB  0AA6               	incf	(___fldiv@new_exp+1)^(0+128),f
  3725     01CC  30FF               	movlw	255
  3726     01CD  07A6               	addwf	(___fldiv@new_exp+1)^(0+128),f
  3727     01CE                     l1855:
  3728     01CE  1283               	bcf	3,5	;RP0=0, select bank0
  3729     01CF  1303               	bcf	3,6	;RP1=0, select bank0
  3730     01D0  1FCB               	btfss	___fldiv@b+2,7
  3731     01D1  29D3               	goto	u2271
  3732     01D2  29D4               	goto	u2270
  3733     01D3                     u2271:
  3734     01D3  29A6               	goto	l1845
  3735     01D4                     u2270:
  3736     01D4                     l1857:
  3737     01D4  1683               	bsf	3,5	;RP0=1, select bank1
  3738     01D5  1303               	bcf	3,6	;RP1=0, select bank1
  3739     01D6  01AC               	clrf	___fldiv@aexp^(0+128)
  3740     01D7                     l1859:
  3741     01D7  1FAA               	btfss	(___fldiv@grs+3)^(0+128),7
  3742     01D8  29DA               	goto	u2281
  3743     01D9  29DB               	goto	u2280
  3744     01DA                     u2281:
  3745     01DA  2A07               	goto	l1867
  3746     01DB                     u2280:
  3747     01DB                     l1861:
  3748     01DB  30FF               	movlw	255
  3749     01DC  0527               	andwf	___fldiv@grs^(0+128),w
  3750     01DD  1283               	bcf	3,5	;RP0=0, select bank0
  3751     01DE  1303               	bcf	3,6	;RP1=0, select bank0
  3752     01DF  00CD               	movwf	??___fldiv
  3753     01E0  30FF               	movlw	255
  3754     01E1  1683               	bsf	3,5	;RP0=1, select bank1
  3755     01E2  1303               	bcf	3,6	;RP1=0, select bank1
  3756     01E3  0528               	andwf	(___fldiv@grs+1)^(0+128),w
  3757     01E4  1283               	bcf	3,5	;RP0=0, select bank0
  3758     01E5  1303               	bcf	3,6	;RP1=0, select bank0
  3759     01E6  00CE               	movwf	??___fldiv+1
  3760     01E7  30FF               	movlw	255
  3761     01E8  1683               	bsf	3,5	;RP0=1, select bank1
  3762     01E9  1303               	bcf	3,6	;RP1=0, select bank1
  3763     01EA  0529               	andwf	(___fldiv@grs+2)^(0+128),w
  3764     01EB  1283               	bcf	3,5	;RP0=0, select bank0
  3765     01EC  1303               	bcf	3,6	;RP1=0, select bank0
  3766     01ED  00CF               	movwf	??___fldiv+2
  3767     01EE  307F               	movlw	127
  3768     01EF  1683               	bsf	3,5	;RP0=1, select bank1
  3769     01F0  1303               	bcf	3,6	;RP1=0, select bank1
  3770     01F1  052A               	andwf	(___fldiv@grs+3)^(0+128),w
  3771     01F2  1283               	bcf	3,5	;RP0=0, select bank0
  3772     01F3  1303               	bcf	3,6	;RP1=0, select bank0
  3773     01F4  00D0               	movwf	??___fldiv+3
  3774     01F5  0850               	movf	??___fldiv+3,w
  3775     01F6  044F               	iorwf	??___fldiv+2,w
  3776     01F7  044E               	iorwf	??___fldiv+1,w
  3777     01F8  044D               	iorwf	??___fldiv,w
  3778     01F9  1903               	skipnz
  3779     01FA  29FC               	goto	u2291
  3780     01FB  29FD               	goto	u2290
  3781     01FC                     u2291:
  3782     01FC  2A02               	goto	l648
  3783     01FD                     u2290:
  3784     01FD                     l1863:
  3785     01FD  3001               	movlw	1
  3786     01FE  1683               	bsf	3,5	;RP0=1, select bank1
  3787     01FF  1303               	bcf	3,6	;RP1=0, select bank1
  3788     0200  00AC               	movwf	___fldiv@aexp^(0+128)
  3789     0201  2A07               	goto	l1867
  3790     0202                     l648:
  3791     0202  1C49               	btfss	___fldiv@b,0
  3792     0203  2A05               	goto	u2301
  3793     0204  2A06               	goto	u2300
  3794     0205                     u2301:
  3795     0205  2A07               	goto	l1867
  3796     0206                     u2300:
  3797     0206  29FD               	goto	l1863
  3798     0207                     l1867:
  3799     0207  1683               	bsf	3,5	;RP0=1, select bank1
  3800     0208  1303               	bcf	3,6	;RP1=0, select bank1
  3801     0209  082C               	movf	___fldiv@aexp^(0+128),w
  3802     020A  1903               	btfsc	3,2
  3803     020B  2A0D               	goto	u2311
  3804     020C  2A0E               	goto	u2310
  3805     020D                     u2311:
  3806     020D  2A43               	goto	l1877
  3807     020E                     u2310:
  3808     020E                     l1869:
  3809     020E  3001               	movlw	1
  3810     020F  1283               	bcf	3,5	;RP0=0, select bank0
  3811     0210  1303               	bcf	3,6	;RP1=0, select bank0
  3812     0211  07C9               	addwf	___fldiv@b,f
  3813     0212  3000               	movlw	0
  3814     0213  1803               	skipnc
  3815     0214  3001               	movlw	1
  3816     0215  07CA               	addwf	___fldiv@b+1,f
  3817     0216  3000               	movlw	0
  3818     0217  1803               	skipnc
  3819     0218  3001               	movlw	1
  3820     0219  07CB               	addwf	___fldiv@b+2,f
  3821     021A  3000               	movlw	0
  3822     021B  1803               	skipnc
  3823     021C  3001               	movlw	1
  3824     021D  07CC               	addwf	___fldiv@b+3,f
  3825     021E                     l1871:
  3826     021E  1C4C               	btfss	___fldiv@b+3,0
  3827     021F  2A21               	goto	u2321
  3828     0220  2A22               	goto	u2320
  3829     0221                     u2321:
  3830     0221  2A43               	goto	l1877
  3831     0222                     u2320:
  3832     0222                     l1873:
  3833     0222  0849               	movf	___fldiv@b,w
  3834     0223  00CD               	movwf	??___fldiv
  3835     0224  084A               	movf	___fldiv@b+1,w
  3836     0225  00CE               	movwf	??___fldiv+1
  3837     0226  084B               	movf	___fldiv@b+2,w
  3838     0227  00CF               	movwf	??___fldiv+2
  3839     0228  084C               	movf	___fldiv@b+3,w
  3840     0229  00D0               	movwf	??___fldiv+3
  3841     022A  3001               	movlw	1
  3842     022B  00D1               	movwf	??___fldiv+4
  3843     022C                     u2335:
  3844     022C  0D50               	rlf	??___fldiv+3,w
  3845     022D  0CD0               	rrf	??___fldiv+3,f
  3846     022E  0CCF               	rrf	??___fldiv+2,f
  3847     022F  0CCE               	rrf	??___fldiv+1,f
  3848     0230  0CCD               	rrf	??___fldiv,f
  3849     0231                     u2330:
  3850     0231  0BD1               	decfsz	??___fldiv+4,f
  3851     0232  2A2C               	goto	u2335
  3852     0233  0850               	movf	??___fldiv+3,w
  3853     0234  00CC               	movwf	___fldiv@b+3
  3854     0235  084F               	movf	??___fldiv+2,w
  3855     0236  00CB               	movwf	___fldiv@b+2
  3856     0237  084E               	movf	??___fldiv+1,w
  3857     0238  00CA               	movwf	___fldiv@b+1
  3858     0239  084D               	movf	??___fldiv,w
  3859     023A  00C9               	movwf	___fldiv@b
  3860     023B                     l1875:
  3861     023B  3001               	movlw	1
  3862     023C  1683               	bsf	3,5	;RP0=1, select bank1
  3863     023D  1303               	bcf	3,6	;RP1=0, select bank1
  3864     023E  07A5               	addwf	___fldiv@new_exp^(0+128),f
  3865     023F  1803               	skipnc
  3866     0240  0AA6               	incf	(___fldiv@new_exp+1)^(0+128),f
  3867     0241  3000               	movlw	0
  3868     0242  07A6               	addwf	(___fldiv@new_exp+1)^(0+128),f
  3869     0243                     l1877:
  3870     0243  1683               	bsf	3,5	;RP0=1, select bank1
  3871     0244  1303               	bcf	3,6	;RP1=0, select bank1
  3872     0245  0826               	movf	(___fldiv@new_exp+1)^(0+128),w
  3873     0246  3A80               	xorlw	128
  3874     0247  00FF               	movwf	btemp+1
  3875     0248  3080               	movlw	128
  3876     0249  027F               	subwf	btemp+1,w
  3877     024A  1D03               	skipz
  3878     024B  2A4E               	goto	u2345
  3879     024C  30FF               	movlw	255
  3880     024D  0225               	subwf	___fldiv@new_exp^(0+128),w
  3881     024E                     u2345:
  3882     024E  1C03               	skipc
  3883     024F  2A51               	goto	u2341
  3884     0250  2A52               	goto	u2340
  3885     0251                     u2341:
  3886     0251  2A62               	goto	l1881
  3887     0252                     u2340:
  3888     0252                     l1879:
  3889     0252  30FF               	movlw	255
  3890     0253  1683               	bsf	3,5	;RP0=1, select bank1
  3891     0254  1303               	bcf	3,6	;RP1=0, select bank1
  3892     0255  00A5               	movwf	___fldiv@new_exp^(0+128)
  3893     0256  3000               	movlw	0
  3894     0257  00A6               	movwf	(___fldiv@new_exp^(0+128)+1)
  3895     0258  3000               	movlw	0
  3896     0259  1283               	bcf	3,5	;RP0=0, select bank0
  3897     025A  1303               	bcf	3,6	;RP1=0, select bank0
  3898     025B  00CC               	movwf	___fldiv@b+3
  3899     025C  3000               	movlw	0
  3900     025D  00CB               	movwf	___fldiv@b+2
  3901     025E  3000               	movlw	0
  3902     025F  00CA               	movwf	___fldiv@b+1
  3903     0260  3000               	movlw	0
  3904     0261  00C9               	movwf	___fldiv@b
  3905     0262                     l1881:
  3906     0262  1683               	bsf	3,5	;RP0=1, select bank1
  3907     0263  1303               	bcf	3,6	;RP1=0, select bank1
  3908     0264  0826               	movf	(___fldiv@new_exp+1)^(0+128),w
  3909     0265  3A80               	xorlw	128
  3910     0266  00FF               	movwf	btemp+1
  3911     0267  3080               	movlw	128
  3912     0268  027F               	subwf	btemp+1,w
  3913     0269  1D03               	skipz
  3914     026A  2A6D               	goto	u2355
  3915     026B  3001               	movlw	1
  3916     026C  0225               	subwf	___fldiv@new_exp^(0+128),w
  3917     026D                     u2355:
  3918     026D  1803               	skipnc
  3919     026E  2A70               	goto	u2351
  3920     026F  2A71               	goto	u2350
  3921     0270                     u2351:
  3922     0270  2A82               	goto	l654
  3923     0271                     u2350:
  3924     0271                     l1883:
  3925     0271  1683               	bsf	3,5	;RP0=1, select bank1
  3926     0272  1303               	bcf	3,6	;RP1=0, select bank1
  3927     0273  01A5               	clrf	___fldiv@new_exp^(0+128)
  3928     0274  01A6               	clrf	(___fldiv@new_exp+1)^(0+128)
  3929     0275                     l1885:
  3930     0275  3000               	movlw	0
  3931     0276  1283               	bcf	3,5	;RP0=0, select bank0
  3932     0277  1303               	bcf	3,6	;RP1=0, select bank0
  3933     0278  00CC               	movwf	___fldiv@b+3
  3934     0279  3000               	movlw	0
  3935     027A  00CB               	movwf	___fldiv@b+2
  3936     027B  3000               	movlw	0
  3937     027C  00CA               	movwf	___fldiv@b+1
  3938     027D  3000               	movlw	0
  3939     027E  00C9               	movwf	___fldiv@b
  3940     027F                     l1887:
  3941     027F  1683               	bsf	3,5	;RP0=1, select bank1
  3942     0280  1303               	bcf	3,6	;RP1=0, select bank1
  3943     0281  01A4               	clrf	___fldiv@sign^(0+128)
  3944     0282                     l654:
  3945     0282  1683               	bsf	3,5	;RP0=1, select bank1
  3946     0283  1303               	bcf	3,6	;RP1=0, select bank1
  3947     0284  0825               	movf	___fldiv@new_exp^(0+128),w
  3948     0285  00AB               	movwf	___fldiv@bexp^(0+128)
  3949     0286                     l1889:
  3950     0286  1C2B               	btfss	___fldiv@bexp^(0+128),0
  3951     0287  2A89               	goto	u2361
  3952     0288  2A8A               	goto	u2360
  3953     0289                     u2361:
  3954     0289  2A8E               	goto	l1893
  3955     028A                     u2360:
  3956     028A                     l1891:
  3957     028A  1283               	bcf	3,5	;RP0=0, select bank0
  3958     028B  1303               	bcf	3,6	;RP1=0, select bank0
  3959     028C  17CB               	bsf	___fldiv@b+2,7
  3960     028D  2A92               	goto	l656
  3961     028E                     l1893:
  3962     028E  307F               	movlw	127
  3963     028F  1283               	bcf	3,5	;RP0=0, select bank0
  3964     0290  1303               	bcf	3,6	;RP1=0, select bank0
  3965     0291  05CB               	andwf	___fldiv@b+2,f
  3966     0292                     l656:
  3967     0292  1683               	bsf	3,5	;RP0=1, select bank1
  3968     0293  1303               	bcf	3,6	;RP1=0, select bank1
  3969     0294  082B               	movf	___fldiv@bexp^(0+128),w
  3970     0295  1283               	bcf	3,5	;RP0=0, select bank0
  3971     0296  1303               	bcf	3,6	;RP1=0, select bank0
  3972     0297  00CD               	movwf	??___fldiv
  3973     0298  1003               	clrc
  3974     0299  0C4D               	rrf	??___fldiv,w
  3975     029A  00CC               	movwf	___fldiv@b+3
  3976     029B  1683               	bsf	3,5	;RP0=1, select bank1
  3977     029C  1303               	bcf	3,6	;RP1=0, select bank1
  3978     029D  0824               	movf	___fldiv@sign^(0+128),w
  3979     029E  1283               	bcf	3,5	;RP0=0, select bank0
  3980     029F  1303               	bcf	3,6	;RP1=0, select bank0
  3981     02A0  04CC               	iorwf	___fldiv@b+3,f
  3982     02A1  28AF               	goto	l1801
  3983     02A2                     l634:
  3984     02A2  0008               	return
  3985     02A3                     __end_of___fldiv:
  3986                           
  3987                           	psect	text17
  3988     0C56                     __ptext17:	
  3989 ;; *************** function _PWM_Init_S *****************
  3990 ;; Defined at:
  3991 ;;		line 197 in file "main.c"
  3992 ;; Parameters:    Size  Location     Type
  3993 ;;		None
  3994 ;; Auto vars:     Size  Location     Type
  3995 ;;		None
  3996 ;; Return value:  Size  Location     Type
  3997 ;;                  1    wreg      void 
  3998 ;; Registers used:
  3999 ;;		status,2
  4000 ;; Tracked objects:
  4001 ;;		On entry : 0/0
  4002 ;;		On exit  : 0/0
  4003 ;;		Unchanged: 0/0
  4004 ;; Data sizes:     COMMON   BANK0   BANK1   BANK3   BANK2
  4005 ;;      Params:         0       0       0       0       0
  4006 ;;      Locals:         0       0       0       0       0
  4007 ;;      Temps:          0       0       0       0       0
  4008 ;;      Totals:         0       0       0       0       0
  4009 ;;Total ram usage:        0 bytes
  4010 ;; Hardware stack levels used: 1
  4011 ;; Hardware stack levels required when called: 6
  4012 ;; This function calls:
  4013 ;;		Nothing
  4014 ;; This function is called by:
  4015 ;;		_main
  4016 ;; This function uses a non-reentrant model
  4017 ;;
  4018                           
  4019     0C56                     _PWM_Init_S:	
  4020                           ;psect for function _PWM_Init_S
  4021                           
  4022     0C56                     l1951:	
  4023                           ;incstack = 0
  4024                           ; Regs used in _PWM_Init_S: [status,2]
  4025                           
  4026                           
  4027                           ;main.c: 199:     PR2 = 249;
  4028     0C56  30F9               	movlw	249
  4029     0C57  1683               	bsf	3,5	;RP0=1, select bank1
  4030     0C58  1303               	bcf	3,6	;RP1=0, select bank1
  4031     0C59  0092               	movwf	18	;volatile
  4032                           
  4033                           ;main.c: 200:     T2CON = 0b00000111;
  4034     0C5A  3007               	movlw	7
  4035     0C5B  1283               	bcf	3,5	;RP0=0, select bank0
  4036     0C5C  1303               	bcf	3,6	;RP1=0, select bank0
  4037     0C5D  0092               	movwf	18	;volatile
  4038                           
  4039                           ;main.c: 201:     CCP1CON = 0b00001100;
  4040     0C5E  300C               	movlw	12
  4041     0C5F  0097               	movwf	23	;volatile
  4042     0C60                     l1953:
  4043                           
  4044                           ;main.c: 202:     CCPR1L = 0;
  4045     0C60  0195               	clrf	21	;volatile
  4046     0C61                     l123:
  4047     0C61  0008               	return
  4048     0C62                     __end_of_PWM_Init_S:
  4049                           
  4050                           	psect	text18
  4051     0C16                     __ptext18:	
  4052 ;; *************** function _Initialize_Hbridge *****************
  4053 ;; Defined at:
  4054 ;;		line 290 in file "main.c"
  4055 ;; Parameters:    Size  Location     Type
  4056 ;;		None
  4057 ;; Auto vars:     Size  Location     Type
  4058 ;;		None
  4059 ;; Return value:  Size  Location     Type
  4060 ;;                  1    wreg      void 
  4061 ;; Registers used:
  4062 ;;		wreg, status,2, status,0
  4063 ;; Tracked objects:
  4064 ;;		On entry : 0/0
  4065 ;;		On exit  : 0/0
  4066 ;;		Unchanged: 0/0
  4067 ;; Data sizes:     COMMON   BANK0   BANK1   BANK3   BANK2
  4068 ;;      Params:         0       0       0       0       0
  4069 ;;      Locals:         0       0       0       0       0
  4070 ;;      Temps:          0       0       0       0       0
  4071 ;;      Totals:         0       0       0       0       0
  4072 ;;Total ram usage:        0 bytes
  4073 ;; Hardware stack levels used: 1
  4074 ;; Hardware stack levels required when called: 6
  4075 ;; This function calls:
  4076 ;;		Nothing
  4077 ;; This function is called by:
  4078 ;;		_main
  4079 ;; This function uses a non-reentrant model
  4080 ;;
  4081                           
  4082     0C16                     _Initialize_Hbridge:	
  4083                           ;psect for function _Initialize_Hbridge
  4084                           
  4085     0C16                     l1949:	
  4086                           ;incstack = 0
  4087                           ; Regs used in _Initialize_Hbridge: [wreg+status,2+status,0]
  4088                           
  4089                           
  4090                           ;main.c: 291:     TRISB &= ~(0b11110000);
  4091     0C16  300F               	movlw	15
  4092     0C17  1683               	bsf	3,5	;RP0=1, select bank1
  4093     0C18  1303               	bcf	3,6	;RP1=0, select bank1
  4094     0C19  0586               	andwf	6,f	;volatile
  4095     0C1A                     l159:
  4096     0C1A  0008               	return
  4097     0C1B                     __end_of_Initialize_Hbridge:
  4098                           
  4099                           	psect	text19
  4100     0C1B                     __ptext19:	
  4101 ;; *************** function _Fan_on *****************
  4102 ;; Defined at:
  4103 ;;		line 319 in file "main.c"
  4104 ;; Parameters:    Size  Location     Type
  4105 ;;		None
  4106 ;; Auto vars:     Size  Location     Type
  4107 ;;		None
  4108 ;; Return value:  Size  Location     Type
  4109 ;;                  1    wreg      void 
  4110 ;; Registers used:
  4111 ;;		wreg, status,2, status,0
  4112 ;; Tracked objects:
  4113 ;;		On entry : 0/0
  4114 ;;		On exit  : 0/0
  4115 ;;		Unchanged: 0/0
  4116 ;; Data sizes:     COMMON   BANK0   BANK1   BANK3   BANK2
  4117 ;;      Params:         0       0       0       0       0
  4118 ;;      Locals:         0       0       0       0       0
  4119 ;;      Temps:          0       0       0       0       0
  4120 ;;      Totals:         0       0       0       0       0
  4121 ;;Total ram usage:        0 bytes
  4122 ;; Hardware stack levels used: 1
  4123 ;; Hardware stack levels required when called: 6
  4124 ;; This function calls:
  4125 ;;		Nothing
  4126 ;; This function is called by:
  4127 ;;		_main
  4128 ;; This function uses a non-reentrant model
  4129 ;;
  4130                           
  4131     0C1B                     _Fan_on:	
  4132                           ;psect for function _Fan_on
  4133                           
  4134     0C1B                     l1983:	
  4135                           ;incstack = 0
  4136                           ; Regs used in _Fan_on: [wreg+status,2+status,0]
  4137                           
  4138                           
  4139                           ;main.c: 320:     PORTB &= ~(0b01000000);
  4140     0C1B  30BF               	movlw	191
  4141     0C1C  1283               	bcf	3,5	;RP0=0, select bank0
  4142     0C1D  1303               	bcf	3,6	;RP1=0, select bank0
  4143     0C1E  0586               	andwf	6,f	;volatile
  4144     0C1F                     l1985:
  4145                           
  4146                           ;main.c: 321:     PORTB |= (0b10000000);
  4147     0C1F  1786               	bsf	6,7	;volatile
  4148     0C20                     l168:
  4149     0C20  0008               	return
  4150     0C21                     __end_of_Fan_on:
  4151                           
  4152                           	psect	text20
  4153     0C11                     __ptext20:	
  4154 ;; *************** function _Fan_off *****************
  4155 ;; Defined at:
  4156 ;;		line 324 in file "main.c"
  4157 ;; Parameters:    Size  Location     Type
  4158 ;;		None
  4159 ;; Auto vars:     Size  Location     Type
  4160 ;;		None
  4161 ;; Return value:  Size  Location     Type
  4162 ;;                  1    wreg      void 
  4163 ;; Registers used:
  4164 ;;		wreg, status,2, status,0
  4165 ;; Tracked objects:
  4166 ;;		On entry : 0/0
  4167 ;;		On exit  : 0/0
  4168 ;;		Unchanged: 0/0
  4169 ;; Data sizes:     COMMON   BANK0   BANK1   BANK3   BANK2
  4170 ;;      Params:         0       0       0       0       0
  4171 ;;      Locals:         0       0       0       0       0
  4172 ;;      Temps:          0       0       0       0       0
  4173 ;;      Totals:         0       0       0       0       0
  4174 ;;Total ram usage:        0 bytes
  4175 ;; Hardware stack levels used: 1
  4176 ;; Hardware stack levels required when called: 6
  4177 ;; This function calls:
  4178 ;;		Nothing
  4179 ;; This function is called by:
  4180 ;;		_main
  4181 ;; This function uses a non-reentrant model
  4182 ;;
  4183                           
  4184     0C11                     _Fan_off:	
  4185                           ;psect for function _Fan_off
  4186                           
  4187     0C11                     l1987:	
  4188                           ;incstack = 0
  4189                           ; Regs used in _Fan_off: [wreg+status,2+status,0]
  4190                           
  4191                           
  4192                           ;main.c: 325:     PORTB &= ~(0b11000000);
  4193     0C11  303F               	movlw	63
  4194     0C12  1283               	bcf	3,5	;RP0=0, select bank0
  4195     0C13  1303               	bcf	3,6	;RP1=0, select bank0
  4196     0C14  0586               	andwf	6,f	;volatile
  4197     0C15                     l171:
  4198     0C15  0008               	return
  4199     0C16                     __end_of_Fan_off:
  4200                           
  4201                           	psect	text21
  4202     0D48                     __ptext21:	
  4203 ;; *************** function _myISR *****************
  4204 ;; Defined at:
  4205 ;;		line 180 in file "main.c"
  4206 ;; Parameters:    Size  Location     Type
  4207 ;;		None
  4208 ;; Auto vars:     Size  Location     Type
  4209 ;;		None
  4210 ;; Return value:  Size  Location     Type
  4211 ;;                  1    wreg      void 
  4212 ;; Registers used:
  4213 ;;		wreg, status,2, status,0, pclath, cstack
  4214 ;; Tracked objects:
  4215 ;;		On entry : 0/0
  4216 ;;		On exit  : 0/0
  4217 ;;		Unchanged: 0/0
  4218 ;; Data sizes:     COMMON   BANK0   BANK1   BANK3   BANK2
  4219 ;;      Params:         0       0       0       0       0
  4220 ;;      Locals:         0       0       0       0       0
  4221 ;;      Temps:          0       2       0       0       0
  4222 ;;      Totals:         0       2       0       0       0
  4223 ;;Total ram usage:        2 bytes
  4224 ;; Hardware stack levels used: 1
  4225 ;; Hardware stack levels required when called: 5
  4226 ;; This function calls:
  4227 ;;		_isr
  4228 ;; This function is called by:
  4229 ;;		Interrupt level 1
  4230 ;; This function uses a non-reentrant model
  4231 ;;
  4232                           
  4233     0D48                     _myISR:	
  4234                           ;psect for function _myISR
  4235                           
  4236     0D48                     i1l2163:
  4237                           
  4238                           ;main.c: 181:     if (INTCON & 0x04) {
  4239     0D48  1D0B               	btfss	11,2	;volatile
  4240     0D49  2D4B               	goto	u276_21
  4241     0D4A  2D4C               	goto	u276_20
  4242     0D4B                     u276_21:
  4243     0D4B  2D6C               	goto	i1l120
  4244     0D4C                     u276_20:
  4245     0D4C                     i1l2165:
  4246                           
  4247                           ;main.c: 182:         TMR0 = 0;
  4248     0D4C  0181               	clrf	1	;volatile
  4249     0D4D                     i1l2167:
  4250                           
  4251                           ;main.c: 183:         cntr++;
  4252     0D4D  3001               	movlw	1
  4253     0D4E  07D7               	addwf	_cntr,f
  4254     0D4F  1803               	skipnc
  4255     0D50  0AD8               	incf	_cntr+1,f
  4256     0D51  3000               	movlw	0
  4257     0D52  07D8               	addwf	_cntr+1,f
  4258     0D53                     i1l2169:
  4259                           
  4260                           ;main.c: 184:         if (cntr == 625) {
  4261     0D53  3071               	movlw	113
  4262     0D54  0657               	xorwf	_cntr,w
  4263     0D55  3002               	movlw	2
  4264     0D56  1903               	skipnz
  4265     0D57  0658               	xorwf	_cntr+1,w
  4266     0D58  1D03               	btfss	3,2
  4267     0D59  2D5B               	goto	u277_21
  4268     0D5A  2D5C               	goto	u277_20
  4269     0D5B                     u277_21:
  4270     0D5B  2D69               	goto	i1l2179
  4271     0D5C                     u277_20:
  4272     0D5C                     i1l2171:
  4273                           
  4274                           ;main.c: 185:             INTCON = INTCON & 0x7F;
  4275     0D5C  080B               	movf	11,w	;volatile
  4276     0D5D  397F               	andlw	127
  4277     0D5E  008B               	movwf	11	;volatile
  4278     0D5F                     i1l2173:
  4279                           
  4280                           ;main.c: 186:             cntr = 0;
  4281     0D5F  01D7               	clrf	_cntr
  4282     0D60  01D8               	clrf	_cntr+1
  4283     0D61                     i1l2175:
  4284                           
  4285                           ;main.c: 187:             isr();
  4286     0D61  120A  118A  2512  120A  158A  	fcall	_isr
  4287     0D66                     i1l2177:
  4288                           
  4289                           ;main.c: 188:             INTCON = INTCON | 0x80;
  4290     0D66  080B               	movf	11,w	;volatile
  4291     0D67  3880               	iorlw	128
  4292     0D68  008B               	movwf	11	;volatile
  4293     0D69                     i1l2179:
  4294                           
  4295                           ;main.c: 190:         INTCON = INTCON & 0xFB;
  4296     0D69  080B               	movf	11,w	;volatile
  4297     0D6A  39FB               	andlw	251
  4298     0D6B  008B               	movwf	11	;volatile
  4299     0D6C                     i1l120:
  4300     0D6C  1283               	bcf	3,5	;RP0=0, select bank0
  4301     0D6D  1303               	bcf	3,6	;RP1=0, select bank0
  4302     0D6E  0836               	movf	??_myISR+1,w
  4303     0D6F  008A               	movwf	10
  4304     0D70  0E35               	swapf	??_myISR,w
  4305     0D71  0083               	movwf	3
  4306     0D72  0EFE               	swapf	btemp,f
  4307     0D73  0E7E               	swapf	btemp,w
  4308     0D74  0009               	retfie
  4309     0D75                     __end_of_myISR:
  4310                           
  4311                           	psect	intentry
  4312     0004                     __pintentry:	
  4313                           ;incstack = 0
  4314 ;; hardware stack exceeded
  4315                           ; Regs used in _myISR: [wreg+status,2+status,0+pclath+cstack]
  4316                           
  4317     0004                     interrupt_function:
  4318     007E                     saved_w         set	btemp
  4319     0004  00FE               	movwf	btemp
  4320     0005  0E03               	swapf	3,w
  4321     0006  1283               	bcf	3,5	;RP0=0, select bank0
  4322     0007  1303               	bcf	3,6	;RP1=0, select bank0
  4323     0008  00B5               	movwf	??_myISR
  4324     0009  080A               	movf	10,w
  4325     000A  00B6               	movwf	??_myISR+1
  4326     000B  120A  158A  2D48   	ljmp	_myISR
  4327                           
  4328                           	psect	text22
  4329     0512                     __ptext22:	
  4330 ;; *************** function _isr *****************
  4331 ;; Defined at:
  4332 ;;		line 126 in file "main.c"
  4333 ;; Parameters:    Size  Location     Type
  4334 ;;		None
  4335 ;; Auto vars:     Size  Location     Type
  4336 ;;  pill_taken      1   20[BANK0 ] unsigned char 
  4337 ;; Return value:  Size  Location     Type
  4338 ;;                  1    wreg      void 
  4339 ;; Registers used:
  4340 ;;		wreg, status,2, status,0, pclath, cstack
  4341 ;; Tracked objects:
  4342 ;;		On entry : 0/0
  4343 ;;		On exit  : 0/0
  4344 ;;		Unchanged: 0/0
  4345 ;; Data sizes:     COMMON   BANK0   BANK1   BANK3   BANK2
  4346 ;;      Params:         0       0       0       0       0
  4347 ;;      Locals:         0       1       0       0       0
  4348 ;;      Temps:          0       0       0       0       0
  4349 ;;      Totals:         0       1       0       0       0
  4350 ;;Total ram usage:        1 bytes
  4351 ;; Hardware stack levels used: 1
  4352 ;; Hardware stack levels required when called: 4
  4353 ;; This function calls:
  4354 ;;		_Pump_off
  4355 ;;		_Pump_on
  4356 ;;		i1_closeDoor
  4357 ;;		i1_delay_ms
  4358 ;;		i1_openDoor
  4359 ;; This function is called by:
  4360 ;;		_myISR
  4361 ;; This function uses a non-reentrant model
  4362 ;;
  4363                           
  4364     0512                     _isr:	
  4365                           ;psect for function _isr
  4366                           
  4367     0512                     i1l2031:	
  4368                           ;incstack = 0
  4369 ;; hardware stack exceeded
  4370                           ; Regs used in _isr: [wreg+status,2+status,0+pclath+cstack]
  4371                           
  4372                           
  4373                           ;main.c: 127:     PORTB = PORTB & 0xFE;
  4374     0512  1283               	bcf	3,5	;RP0=0, select bank0
  4375     0513  1303               	bcf	3,6	;RP1=0, select bank0
  4376     0514  0806               	movf	6,w	;volatile
  4377     0515  39FE               	andlw	254
  4378     0516  0086               	movwf	6	;volatile
  4379     0517                     i1l2033:
  4380                           
  4381                           ;main.c: 128:     delay_ms(300);
  4382     0517  302C               	movlw	44
  4383     0518  00F4               	movwf	i1delay_ms@x
  4384     0519  3001               	movlw	1
  4385     051A  00F5               	movwf	i1delay_ms@x+1
  4386     051B  120A  158A  24BE  120A  118A  	fcall	i1_delay_ms
  4387     0520                     i1l2035:
  4388                           
  4389                           ;main.c: 129:     PORTB = PORTB | 0x01;
  4390     0520  1283               	bcf	3,5	;RP0=0, select bank0
  4391     0521  1303               	bcf	3,6	;RP1=0, select bank0
  4392     0522  0806               	movf	6,w	;volatile
  4393     0523  3801               	iorlw	1
  4394     0524  0086               	movwf	6	;volatile
  4395                           
  4396                           ;main.c: 130:     delay_ms(2500);
  4397     0525  30C4               	movlw	196
  4398     0526  00F4               	movwf	i1delay_ms@x
  4399     0527  3009               	movlw	9
  4400     0528  00F5               	movwf	i1delay_ms@x+1
  4401     0529  120A  158A  24BE  120A  118A  	fcall	i1_delay_ms
  4402     052E                     i1l2037:
  4403                           
  4404                           ;main.c: 132:     if (PORTD & 0x01) {
  4405     052E  1283               	bcf	3,5	;RP0=0, select bank0
  4406     052F  1303               	bcf	3,6	;RP1=0, select bank0
  4407     0530  1C08               	btfss	8,0	;volatile
  4408     0531  2D33               	goto	u259_21
  4409     0532  2D34               	goto	u259_20
  4410     0533                     u259_21:
  4411     0533  2D47               	goto	i1l2045
  4412     0534                     u259_20:
  4413     0534                     i1l2039:
  4414                           
  4415                           ;main.c: 133:         openDoor();
  4416     0534  120A  158A  244A  120A  118A  	fcall	i1_openDoor
  4417                           
  4418                           ;main.c: 134:         while (!(PORTD & 0x10)) {
  4419     0539  2D3B               	goto	i1l100
  4420     053A                     i1l101:
  4421     053A  0000               	nop	;# 
  4422     053B                     i1l100:	
  4423                           ;main.c: 136:         }
  4424                           
  4425                           
  4426                           ;main.c: 134:         while (!(PORTD & 0x10)) {
  4427     053B  1283               	bcf	3,5	;RP0=0, select bank0
  4428     053C  1303               	bcf	3,6	;RP1=0, select bank0
  4429     053D  1E08               	btfss	8,4	;volatile
  4430     053E  2D40               	goto	u260_21
  4431     053F  2D41               	goto	u260_20
  4432     0540                     u260_21:
  4433     0540  2D3A               	goto	i1l101
  4434     0541                     u260_20:
  4435     0541                     i1l2041:
  4436                           
  4437                           ;main.c: 137:         closeDoor();
  4438     0541  120A  158A  243E  120A  118A  	fcall	i1_closeDoor
  4439     0546  2DBA               	goto	i1l103
  4440     0547                     i1l2045:
  4441                           
  4442                           ;main.c: 141:     char pill_taken = 0;
  4443     0547  01B4               	clrf	isr@pill_taken
  4444     0548                     i1l2047:
  4445                           
  4446                           ;main.c: 144:         PORTC = PORTC | 0x20;
  4447     0548  1283               	bcf	3,5	;RP0=0, select bank0
  4448     0549  0807               	movf	7,w	;volatile
  4449     054A  3820               	iorlw	32
  4450     054B  0087               	movwf	7	;volatile
  4451     054C                     i1l2049:
  4452                           
  4453                           ;main.c: 146:         if (!pill_taken)
  4454     054C  0834               	movf	isr@pill_taken,w
  4455     054D  1D03               	btfss	3,2
  4456     054E  2D50               	goto	u261_21
  4457     054F  2D51               	goto	u261_20
  4458     0550                     u261_21:
  4459     0550  2D55               	goto	i1l2053
  4460     0551                     u261_20:
  4461     0551                     i1l2051:
  4462                           
  4463                           ;main.c: 147:             PORTD = PORTD | 0x04;
  4464     0551  0808               	movf	8,w	;volatile
  4465     0552  3804               	iorlw	4
  4466     0553  0088               	movwf	8	;volatile
  4467     0554  2D58               	goto	i1l2055
  4468     0555                     i1l2053:
  4469                           
  4470                           ;main.c: 149:             PORTD = PORTD & 0xFB;
  4471     0555  0808               	movf	8,w	;volatile
  4472     0556  39FB               	andlw	251
  4473     0557  0088               	movwf	8	;volatile
  4474     0558                     i1l2055:
  4475                           
  4476                           ;main.c: 151:         if (!water_flag && (PORTB & 0x02)) {
  4477     0558  1683               	bsf	3,5	;RP0=1, select bank1
  4478     0559  1303               	bcf	3,6	;RP1=0, select bank1
  4479     055A  083D               	movf	_water_flag^(0+128),w
  4480     055B  1D03               	btfss	3,2
  4481     055C  2D5E               	goto	u262_21
  4482     055D  2D5F               	goto	u262_20
  4483     055E                     u262_21:
  4484     055E  2D68               	goto	i1l2061
  4485     055F                     u262_20:
  4486     055F                     i1l2057:
  4487     055F  1283               	bcf	3,5	;RP0=0, select bank0
  4488     0560  1303               	bcf	3,6	;RP1=0, select bank0
  4489     0561  1C86               	btfss	6,1	;volatile
  4490     0562  2D64               	goto	u263_21
  4491     0563  2D65               	goto	u263_20
  4492     0564                     u263_21:
  4493     0564  2D68               	goto	i1l2061
  4494     0565                     u263_20:
  4495     0565                     i1l2059:
  4496                           
  4497                           ;main.c: 152:             PORTD = PORTD | 0x08;
  4498     0565  0808               	movf	8,w	;volatile
  4499     0566  3808               	iorlw	8
  4500     0567  0088               	movwf	8	;volatile
  4501     0568                     i1l2061:
  4502                           
  4503                           ;main.c: 155:         if (!water_flag && !(PORTB & 0x02)) {
  4504     0568  1683               	bsf	3,5	;RP0=1, select bank1
  4505     0569  1303               	bcf	3,6	;RP1=0, select bank1
  4506     056A  083D               	movf	_water_flag^(0+128),w
  4507     056B  1D03               	btfss	3,2
  4508     056C  2D6E               	goto	u264_21
  4509     056D  2D6F               	goto	u264_20
  4510     056E                     u264_21:
  4511     056E  2D8E               	goto	i1l2073
  4512     056F                     u264_20:
  4513     056F                     i1l2063:
  4514     056F  1283               	bcf	3,5	;RP0=0, select bank0
  4515     0570  1303               	bcf	3,6	;RP1=0, select bank0
  4516     0571  1886               	btfsc	6,1	;volatile
  4517     0572  2D74               	goto	u265_21
  4518     0573  2D75               	goto	u265_20
  4519     0574                     u265_21:
  4520     0574  2D8E               	goto	i1l2073
  4521     0575                     u265_20:
  4522     0575                     i1l2065:
  4523                           
  4524                           ;main.c: 156:             PORTD = PORTD & 0xF7;
  4525     0575  0808               	movf	8,w	;volatile
  4526     0576  39F7               	andlw	247
  4527     0577  0088               	movwf	8	;volatile
  4528                           
  4529                           ;main.c: 157:             PORTC = PORTC & 0xDF;
  4530     0578  0807               	movf	7,w	;volatile
  4531     0579  39DF               	andlw	223
  4532     057A  0087               	movwf	7	;volatile
  4533     057B                     i1l2067:
  4534                           
  4535                           ;main.c: 158:             Pump_on();
  4536     057B  120A  158A  26C4  120A  118A  	fcall	_Pump_on
  4537     0580                     i1l2069:
  4538                           
  4539                           ;main.c: 159:             Pump_off();
  4540     0580  120A  158A  247C  120A  118A  	fcall	_Pump_off
  4541                           
  4542                           ;main.c: 160:             PORTC = PORTC | 0x20;
  4543     0585  1283               	bcf	3,5	;RP0=0, select bank0
  4544     0586  1303               	bcf	3,6	;RP1=0, select bank0
  4545     0587  0807               	movf	7,w	;volatile
  4546     0588  3820               	iorlw	32
  4547     0589  0087               	movwf	7	;volatile
  4548     058A                     i1l2071:
  4549                           
  4550                           ;main.c: 161:             water_flag = 1;
  4551     058A  3001               	movlw	1
  4552     058B  1683               	bsf	3,5	;RP0=1, select bank1
  4553     058C  1303               	bcf	3,6	;RP1=0, select bank1
  4554     058D  00BD               	movwf	_water_flag^(0+128)
  4555     058E                     i1l2073:
  4556                           
  4557                           ;main.c: 164:         if (water_flag)
  4558     058E  1683               	bsf	3,5	;RP0=1, select bank1
  4559     058F  1303               	bcf	3,6	;RP1=0, select bank1
  4560     0590  083D               	movf	_water_flag^(0+128),w
  4561     0591  1903               	btfsc	3,2
  4562     0592  2D94               	goto	u266_21
  4563     0593  2D95               	goto	u266_20
  4564     0594                     u266_21:
  4565     0594  2D9A               	goto	i1l2077
  4566     0595                     u266_20:
  4567     0595                     i1l2075:
  4568                           
  4569                           ;main.c: 165:             PORTD = PORTD & 0xF7;
  4570     0595  1283               	bcf	3,5	;RP0=0, select bank0
  4571     0596  1303               	bcf	3,6	;RP1=0, select bank0
  4572     0597  0808               	movf	8,w	;volatile
  4573     0598  39F7               	andlw	247
  4574     0599  0088               	movwf	8	;volatile
  4575     059A                     i1l2077:
  4576                           
  4577                           ;main.c: 167:         if (PORTD & 0x01) {
  4578     059A  1283               	bcf	3,5	;RP0=0, select bank0
  4579     059B  1C08               	btfss	8,0	;volatile
  4580     059C  2D9E               	goto	u267_21
  4581     059D  2D9F               	goto	u267_20
  4582     059E                     u267_21:
  4583     059E  2DA1               	goto	i1l2081
  4584     059F                     u267_20:
  4585     059F                     i1l2079:
  4586                           
  4587                           ;main.c: 168:             pill_taken = 1;
  4588     059F  3001               	movlw	1
  4589     05A0  00B4               	movwf	isr@pill_taken
  4590     05A1                     i1l2081:
  4591                           
  4592                           ;main.c: 171:         if (pill_taken && water_flag) {
  4593     05A1  0834               	movf	isr@pill_taken,w
  4594     05A2  1903               	btfsc	3,2
  4595     05A3  2DA5               	goto	u268_21
  4596     05A4  2DA6               	goto	u268_20
  4597     05A5                     u268_21:
  4598     05A5  2D48               	goto	i1l2047
  4599     05A6                     u268_20:
  4600     05A6                     i1l2083:
  4601     05A6  1683               	bsf	3,5	;RP0=1, select bank1
  4602     05A7  1303               	bcf	3,6	;RP1=0, select bank1
  4603     05A8  083D               	movf	_water_flag^(0+128),w
  4604     05A9  1903               	btfsc	3,2
  4605     05AA  2DAC               	goto	u269_21
  4606     05AB  2DAD               	goto	u269_20
  4607     05AC                     u269_21:
  4608     05AC  2D48               	goto	i1l2047
  4609     05AD                     u269_20:
  4610     05AD                     i1l2085:
  4611                           
  4612                           ;main.c: 172:             PORTC = PORTC & 0xDF;
  4613     05AD  1283               	bcf	3,5	;RP0=0, select bank0
  4614     05AE  1303               	bcf	3,6	;RP1=0, select bank0
  4615     05AF  0807               	movf	7,w	;volatile
  4616     05B0  39DF               	andlw	223
  4617     05B1  0087               	movwf	7	;volatile
  4618     05B2                     i1l2087:
  4619                           
  4620                           ;main.c: 173:             water_flag = 0;
  4621     05B2  1683               	bsf	3,5	;RP0=1, select bank1
  4622     05B3  1303               	bcf	3,6	;RP1=0, select bank1
  4623     05B4  01BD               	clrf	_water_flag^(0+128)
  4624     05B5                     i1l2089:
  4625                           
  4626                           ;main.c: 174:             PORTD = PORTD & 0xFB;
  4627     05B5  1283               	bcf	3,5	;RP0=0, select bank0
  4628     05B6  1303               	bcf	3,6	;RP1=0, select bank0
  4629     05B7  0808               	movf	8,w	;volatile
  4630     05B8  39FB               	andlw	251
  4631     05B9  0088               	movwf	8	;volatile
  4632     05BA                     i1l103:
  4633     05BA  0008               	return
  4634     05BB                     __end_of_isr:
  4635                           
  4636                           	psect	text23
  4637     0C4A                     __ptext23:	
  4638 ;; *************** function i1_openDoor *****************
  4639 ;; Defined at:
  4640 ;;		line 255 in file "main.c"
  4641 ;; Parameters:    Size  Location     Type
  4642 ;;		None
  4643 ;; Auto vars:     Size  Location     Type
  4644 ;;		None
  4645 ;; Return value:  Size  Location     Type
  4646 ;;                  1    wreg      void 
  4647 ;; Registers used:
  4648 ;;		wreg, status,2, status,0, pclath, cstack
  4649 ;; Tracked objects:
  4650 ;;		On entry : 0/0
  4651 ;;		On exit  : 0/0
  4652 ;;		Unchanged: 0/0
  4653 ;; Data sizes:     COMMON   BANK0   BANK1   BANK3   BANK2
  4654 ;;      Params:         0       0       0       0       0
  4655 ;;      Locals:         0       0       0       0       0
  4656 ;;      Temps:          0       0       0       0       0
  4657 ;;      Totals:         0       0       0       0       0
  4658 ;;Total ram usage:        0 bytes
  4659 ;; Hardware stack levels used: 1
  4660 ;; Hardware stack levels required when called: 2
  4661 ;; This function calls:
  4662 ;;		i1_Set_PWM_Duty
  4663 ;; This function is called by:
  4664 ;;		_isr
  4665 ;; This function uses a non-reentrant model
  4666 ;;
  4667                           
  4668     0C4A                     i1_openDoor:	
  4669                           ;psect for function i1_openDoor
  4670                           
  4671     0C4A                     i1l1941:	
  4672                           ;incstack = 0
  4673                           ; Regs used in i1_openDoor: [wreg+status,2+status,0+pclath+cstack]
  4674                           
  4675                           
  4676                           ;main.c: 256:     Set_PWM_Duty(60);
  4677     0C4A  303C               	movlw	60
  4678     0C4B  1283               	bcf	3,5	;RP0=0, select bank0
  4679     0C4C  1303               	bcf	3,6	;RP1=0, select bank0
  4680     0C4D  00AE               	movwf	i1Set_PWM_Duty@duty_us
  4681     0C4E  3000               	movlw	0
  4682     0C4F  00AF               	movwf	i1Set_PWM_Duty@duty_us+1
  4683     0C50  120A  118A  2785  120A  158A  	fcall	i1_Set_PWM_Duty
  4684     0C55                     i1l135:
  4685     0C55  0008               	return
  4686     0C56                     __end_ofi1_openDoor:
  4687                           
  4688                           	psect	text24
  4689     0C3E                     __ptext24:	
  4690 ;; *************** function i1_closeDoor *****************
  4691 ;; Defined at:
  4692 ;;		line 259 in file "main.c"
  4693 ;; Parameters:    Size  Location     Type
  4694 ;;		None
  4695 ;; Auto vars:     Size  Location     Type
  4696 ;;		None
  4697 ;; Return value:  Size  Location     Type
  4698 ;;                  1    wreg      void 
  4699 ;; Registers used:
  4700 ;;		wreg, status,2, status,0, pclath, cstack
  4701 ;; Tracked objects:
  4702 ;;		On entry : 0/0
  4703 ;;		On exit  : 0/0
  4704 ;;		Unchanged: 0/0
  4705 ;; Data sizes:     COMMON   BANK0   BANK1   BANK3   BANK2
  4706 ;;      Params:         0       0       0       0       0
  4707 ;;      Locals:         0       0       0       0       0
  4708 ;;      Temps:          0       0       0       0       0
  4709 ;;      Totals:         0       0       0       0       0
  4710 ;;Total ram usage:        0 bytes
  4711 ;; Hardware stack levels used: 1
  4712 ;; Hardware stack levels required when called: 2
  4713 ;; This function calls:
  4714 ;;		i1_Set_PWM_Duty
  4715 ;; This function is called by:
  4716 ;;		_isr
  4717 ;; This function uses a non-reentrant model
  4718 ;;
  4719                           
  4720     0C3E                     i1_closeDoor:	
  4721                           ;psect for function i1_closeDoor
  4722                           
  4723     0C3E                     i1l1943:	
  4724                           ;incstack = 0
  4725                           ; Regs used in i1_closeDoor: [wreg+status,2+status,0+pclath+cstack]
  4726                           
  4727                           
  4728                           ;main.c: 260:     Set_PWM_Duty(319);
  4729     0C3E  303F               	movlw	63
  4730     0C3F  1283               	bcf	3,5	;RP0=0, select bank0
  4731     0C40  1303               	bcf	3,6	;RP1=0, select bank0
  4732     0C41  00AE               	movwf	i1Set_PWM_Duty@duty_us
  4733     0C42  3001               	movlw	1
  4734     0C43  00AF               	movwf	i1Set_PWM_Duty@duty_us+1
  4735     0C44  120A  118A  2785  120A  158A  	fcall	i1_Set_PWM_Duty
  4736     0C49                     i1l138:
  4737     0C49  0008               	return
  4738     0C4A                     __end_ofi1_closeDoor:
  4739                           
  4740                           	psect	text25
  4741     0785                     __ptext25:	
  4742 ;; *************** function i1_Set_PWM_Duty *****************
  4743 ;; Defined at:
  4744 ;;		line 240 in file "main.c"
  4745 ;; Parameters:    Size  Location     Type
  4746 ;;  duty_us         2   14[BANK0 ] unsigned int 
  4747 ;; Auto vars:     Size  Location     Type
  4748 ;;  duty            2   18[BANK0 ] unsigned int 
  4749 ;; Return value:  Size  Location     Type
  4750 ;;                  1    wreg      void 
  4751 ;; Registers used:
  4752 ;;		wreg, status,2, status,0, pclath, cstack
  4753 ;; Tracked objects:
  4754 ;;		On entry : 0/0
  4755 ;;		On exit  : 0/0
  4756 ;;		Unchanged: 0/0
  4757 ;; Data sizes:     COMMON   BANK0   BANK1   BANK3   BANK2
  4758 ;;      Params:         0       2       0       0       0
  4759 ;;      Locals:         0       2       0       0       0
  4760 ;;      Temps:          0       2       0       0       0
  4761 ;;      Totals:         0       6       0       0       0
  4762 ;;Total ram usage:        6 bytes
  4763 ;; Hardware stack levels used: 1
  4764 ;; Hardware stack levels required when called: 1
  4765 ;; This function calls:
  4766 ;;		i1___aldiv
  4767 ;;		i1___lmul
  4768 ;;		i1___wmul
  4769 ;; This function is called by:
  4770 ;;		i1_openDoor
  4771 ;;		i1_closeDoor
  4772 ;; This function uses a non-reentrant model
  4773 ;;
  4774                           
  4775     0785                     i1_Set_PWM_Duty:	
  4776                           ;psect for function i1_Set_PWM_Duty
  4777                           
  4778     0785                     i1l1643:	
  4779                           ;incstack = 0
  4780                           ; Regs used in i1_Set_PWM_Duty: [wreg+status,2+status,0+pclath+cstack]
  4781                           
  4782                           
  4783                           ;main.c: 242:     unsigned int duty = (duty_us * (8000000 / 4)) / (16 * (PR2 + 1) * 1000
      +                          );
  4784     0785  30E8               	movlw	232
  4785     0786  00F2               	movwf	i1___wmul@multiplicand
  4786     0787  3003               	movlw	3
  4787     0788  00F3               	movwf	i1___wmul@multiplicand+1
  4788     0789  1683               	bsf	3,5	;RP0=1, select bank1
  4789     078A  1303               	bcf	3,6	;RP1=0, select bank1
  4790     078B  0812               	movf	18,w	;volatile
  4791     078C  1283               	bcf	3,5	;RP0=0, select bank0
  4792     078D  1303               	bcf	3,6	;RP1=0, select bank0
  4793     078E  00B0               	movwf	??i1_Set_PWM_Duty
  4794     078F  01B1               	clrf	??i1_Set_PWM_Duty+1
  4795     0790  0EB0               	swapf	??i1_Set_PWM_Duty,f
  4796     0791  0EB1               	swapf	??i1_Set_PWM_Duty+1,f
  4797     0792  30F0               	movlw	240
  4798     0793  05B1               	andwf	??i1_Set_PWM_Duty+1,f
  4799     0794  0830               	movf	??i1_Set_PWM_Duty,w
  4800     0795  390F               	andlw	15
  4801     0796  04B1               	iorwf	??i1_Set_PWM_Duty+1,f
  4802     0797  30F0               	movlw	240
  4803     0798  05B0               	andwf	??i1_Set_PWM_Duty,f
  4804     0799  0830               	movf	??i1_Set_PWM_Duty,w
  4805     079A  3E10               	addlw	16
  4806     079B  00F0               	movwf	i1___wmul@multiplier
  4807     079C  0831               	movf	??i1_Set_PWM_Duty+1,w
  4808     079D  1803               	skipnc
  4809     079E  3E01               	addlw	1
  4810     079F  3E00               	addlw	0
  4811     07A0  00F1               	movwf	i1___wmul@multiplier+1
  4812     07A1  120A  158A  24FC  120A  118A  	fcall	i1___wmul
  4813     07A6  0870               	movf	?i1___wmul,w
  4814     07A7  1283               	bcf	3,5	;RP0=0, select bank0
  4815     07A8  1303               	bcf	3,6	;RP1=0, select bank0
  4816     07A9  00A0               	movwf	i1___aldiv@divisor
  4817     07AA  0871               	movf	?i1___wmul+1,w
  4818     07AB  00A1               	movwf	i1___aldiv@divisor+1
  4819     07AC  3000               	movlw	0
  4820     07AD  1BA1               	btfsc	i1___aldiv@divisor+1,7
  4821     07AE  30FF               	movlw	255
  4822     07AF  00A2               	movwf	i1___aldiv@divisor+2
  4823     07B0  00A3               	movwf	i1___aldiv@divisor+3
  4824     07B1  082E               	movf	i1Set_PWM_Duty@duty_us,w
  4825     07B2  00F0               	movwf	i1___lmul@multiplier
  4826     07B3  082F               	movf	i1Set_PWM_Duty@duty_us+1,w
  4827     07B4  00F1               	movwf	i1___lmul@multiplier+1
  4828     07B5  01F2               	clrf	i1___lmul@multiplier+2
  4829     07B6  01F3               	clrf	i1___lmul@multiplier+3
  4830     07B7  3000               	movlw	0
  4831     07B8  00F7               	movwf	i1___lmul@multiplicand+3
  4832     07B9  301E               	movlw	30
  4833     07BA  00F6               	movwf	i1___lmul@multiplicand+2
  4834     07BB  3084               	movlw	132
  4835     07BC  00F5               	movwf	i1___lmul@multiplicand+1
  4836     07BD  3080               	movlw	128
  4837     07BE  00F4               	movwf	i1___lmul@multiplicand
  4838     07BF  120A  158A  25E9  120A  118A  	fcall	i1___lmul
  4839     07C4  0873               	movf	?i1___lmul+3,w
  4840     07C5  1283               	bcf	3,5	;RP0=0, select bank0
  4841     07C6  1303               	bcf	3,6	;RP1=0, select bank0
  4842     07C7  00A7               	movwf	i1___aldiv@dividend+3
  4843     07C8  0872               	movf	?i1___lmul+2,w
  4844     07C9  00A6               	movwf	i1___aldiv@dividend+2
  4845     07CA  0871               	movf	?i1___lmul+1,w
  4846     07CB  00A5               	movwf	i1___aldiv@dividend+1
  4847     07CC  0870               	movf	?i1___lmul,w
  4848     07CD  00A4               	movwf	i1___aldiv@dividend
  4849     07CE  120A  118A  2654  120A  118A  	fcall	i1___aldiv
  4850     07D3  1283               	bcf	3,5	;RP0=0, select bank0
  4851     07D4  1303               	bcf	3,6	;RP1=0, select bank0
  4852     07D5  0821               	movf	?i1___aldiv+1,w
  4853     07D6  00B3               	movwf	i1Set_PWM_Duty@duty+1
  4854     07D7  0820               	movf	?i1___aldiv,w
  4855     07D8  00B2               	movwf	i1Set_PWM_Duty@duty
  4856     07D9                     i1l1645:
  4857                           
  4858                           ;main.c: 245:     CCPR1L = duty >> 2;
  4859     07D9  0833               	movf	i1Set_PWM_Duty@duty+1,w
  4860     07DA  00B1               	movwf	??i1_Set_PWM_Duty+1
  4861     07DB  0832               	movf	i1Set_PWM_Duty@duty,w
  4862     07DC  00B0               	movwf	??i1_Set_PWM_Duty
  4863     07DD  1003               	clrc
  4864     07DE  0CB1               	rrf	??i1_Set_PWM_Duty+1,f
  4865     07DF  0CB0               	rrf	??i1_Set_PWM_Duty,f
  4866     07E0  1003               	clrc
  4867     07E1  0CB1               	rrf	??i1_Set_PWM_Duty+1,f
  4868     07E2  0CB0               	rrf	??i1_Set_PWM_Duty,f
  4869     07E3  0830               	movf	??i1_Set_PWM_Duty,w
  4870     07E4  0095               	movwf	21	;volatile
  4871     07E5                     i1l1647:
  4872                           
  4873                           ;main.c: 248:     CCP1CON &= 0xCF;
  4874     07E5  30CF               	movlw	207
  4875     07E6  0597               	andwf	23,f	;volatile
  4876     07E7                     i1l1649:
  4877                           
  4878                           ;main.c: 251:     CCP1CON |= ((duty & 0x03) << 4);
  4879     07E7  0832               	movf	i1Set_PWM_Duty@duty,w	;volatile
  4880     07E8  3903               	andlw	3
  4881     07E9  00B0               	movwf	??i1_Set_PWM_Duty
  4882     07EA  3003               	movlw	3
  4883     07EB                     u186_25:
  4884     07EB  1003               	clrc
  4885     07EC  0DB0               	rlf	??i1_Set_PWM_Duty,f
  4886     07ED  3EFF               	addlw	-1
  4887     07EE  1D03               	skipz
  4888     07EF  2FEB               	goto	u186_25
  4889     07F0  1003               	clrc
  4890     07F1  0D30               	rlf	??i1_Set_PWM_Duty,w
  4891     07F2  0497               	iorwf	23,f	;volatile
  4892     07F3                     i1l132:
  4893     07F3  0008               	return
  4894     07F4                     __end_ofi1_Set_PWM_Duty:
  4895                           
  4896                           	psect	text26
  4897     0CFC                     __ptext26:	
  4898 ;; *************** function i1___wmul *****************
  4899 ;; Defined at:
  4900 ;;		line 15 in file "C:\Program Files\Microchip\xc8\v3.00\pic\sources\c99\common\Umul16.c"
  4901 ;; Parameters:    Size  Location     Type
  4902 ;;  multiplier      2    0[COMMON] unsigned int 
  4903 ;;  multiplicand    2    2[COMMON] unsigned int 
  4904 ;; Auto vars:     Size  Location     Type
  4905 ;;  product         2    4[COMMON] unsigned int 
  4906 ;; Return value:  Size  Location     Type
  4907 ;;                  2    0[COMMON] unsigned int 
  4908 ;; Registers used:
  4909 ;;		wreg, status,2, status,0
  4910 ;; Tracked objects:
  4911 ;;		On entry : 0/0
  4912 ;;		On exit  : 0/0
  4913 ;;		Unchanged: 0/0
  4914 ;; Data sizes:     COMMON   BANK0   BANK1   BANK3   BANK2
  4915 ;;      Params:         4       0       0       0       0
  4916 ;;      Locals:         2       0       0       0       0
  4917 ;;      Temps:          0       0       0       0       0
  4918 ;;      Totals:         6       0       0       0       0
  4919 ;;Total ram usage:        6 bytes
  4920 ;; Hardware stack levels used: 1
  4921 ;; This function calls:
  4922 ;;		Nothing
  4923 ;; This function is called by:
  4924 ;;		i1_Set_PWM_Duty
  4925 ;; This function uses a non-reentrant model
  4926 ;;
  4927                           
  4928     0CFC                     i1___wmul:	
  4929                           ;psect for function i1___wmul
  4930                           
  4931     0CFC                     i1l1511:	
  4932                           ;incstack = 0
  4933                           ; Regs used in i1___wmul: [wreg+status,2+status,0]
  4934                           
  4935     0CFC  01F4               	clrf	i1___wmul@product
  4936     0CFD  01F5               	clrf	i1___wmul@product+1
  4937     0CFE                     i1l1513:
  4938     0CFE  1C70               	btfss	i1___wmul@multiplier,0
  4939     0CFF  2D01               	goto	u153_21
  4940     0D00  2D02               	goto	u153_20
  4941     0D01                     u153_21:
  4942     0D01  2D08               	goto	i1l275
  4943     0D02                     u153_20:
  4944     0D02                     i1l1515:
  4945     0D02  0872               	movf	i1___wmul@multiplicand,w
  4946     0D03  07F4               	addwf	i1___wmul@product,f
  4947     0D04  1803               	skipnc
  4948     0D05  0AF5               	incf	i1___wmul@product+1,f
  4949     0D06  0873               	movf	i1___wmul@multiplicand+1,w
  4950     0D07  07F5               	addwf	i1___wmul@product+1,f
  4951     0D08                     i1l275:
  4952     0D08  3001               	movlw	1
  4953     0D09                     u154_25:
  4954     0D09  1003               	clrc
  4955     0D0A  0DF2               	rlf	i1___wmul@multiplicand,f
  4956     0D0B  0DF3               	rlf	i1___wmul@multiplicand+1,f
  4957     0D0C  3EFF               	addlw	-1
  4958     0D0D  1D03               	skipz
  4959     0D0E  2D09               	goto	u154_25
  4960     0D0F                     i1l1517:
  4961     0D0F  3001               	movlw	1
  4962     0D10                     u155_25:
  4963     0D10  1003               	clrc
  4964     0D11  0CF1               	rrf	i1___wmul@multiplier+1,f
  4965     0D12  0CF0               	rrf	i1___wmul@multiplier,f
  4966     0D13  3EFF               	addlw	-1
  4967     0D14  1D03               	skipz
  4968     0D15  2D10               	goto	u155_25
  4969     0D16                     i1l1519:
  4970     0D16  0870               	movf	i1___wmul@multiplier,w
  4971     0D17  0471               	iorwf	i1___wmul@multiplier+1,w
  4972     0D18  1D03               	btfss	3,2
  4973     0D19  2D1B               	goto	u156_21
  4974     0D1A  2D1C               	goto	u156_20
  4975     0D1B                     u156_21:
  4976     0D1B  2CFE               	goto	i1l1513
  4977     0D1C                     u156_20:
  4978     0D1C                     i1l1521:
  4979     0D1C  0875               	movf	i1___wmul@product+1,w
  4980     0D1D  00F1               	movwf	?i1___wmul+1
  4981     0D1E  0874               	movf	i1___wmul@product,w
  4982     0D1F  00F0               	movwf	?i1___wmul
  4983     0D20                     i1l277:
  4984     0D20  0008               	return
  4985     0D21                     __end_ofi1___wmul:
  4986                           
  4987                           	psect	text27
  4988     0654                     __ptext27:	
  4989 ;; *************** function i1___aldiv *****************
  4990 ;; Defined at:
  4991 ;;		line 5 in file "C:\Program Files\Microchip\xc8\v3.00\pic\sources\c99\common\aldiv.c"
  4992 ;; Parameters:    Size  Location     Type
  4993 ;;  divisor         4    0[BANK0 ] long 
  4994 ;;  dividend        4    4[BANK0 ] long 
  4995 ;; Auto vars:     Size  Location     Type
  4996 ;;  quotient        4   10[BANK0 ] long 
  4997 ;;  sign            1    9[BANK0 ] unsigned char 
  4998 ;;  counter         1    8[BANK0 ] unsigned char 
  4999 ;; Return value:  Size  Location     Type
  5000 ;;                  4    0[BANK0 ] long 
  5001 ;; Registers used:
  5002 ;;		wreg, status,2, status,0
  5003 ;; Tracked objects:
  5004 ;;		On entry : 0/0
  5005 ;;		On exit  : 0/0
  5006 ;;		Unchanged: 0/0
  5007 ;; Data sizes:     COMMON   BANK0   BANK1   BANK3   BANK2
  5008 ;;      Params:         0       8       0       0       0
  5009 ;;      Locals:         0       6       0       0       0
  5010 ;;      Temps:          1       0       0       0       0
  5011 ;;      Totals:         1      14       0       0       0
  5012 ;;Total ram usage:       15 bytes
  5013 ;; Hardware stack levels used: 1
  5014 ;; This function calls:
  5015 ;;		Nothing
  5016 ;; This function is called by:
  5017 ;;		i1_Set_PWM_Duty
  5018 ;; This function uses a non-reentrant model
  5019 ;;
  5020                           
  5021     0654                     i1___aldiv:	
  5022                           ;psect for function i1___aldiv
  5023                           
  5024     0654                     i1l1525:	
  5025                           ;incstack = 0
  5026                           ; Regs used in i1___aldiv: [wreg+status,2+status,0]
  5027                           
  5028     0654  1283               	bcf	3,5	;RP0=0, select bank0
  5029     0655  1303               	bcf	3,6	;RP1=0, select bank0
  5030     0656  01A9               	clrf	i1___aldiv@sign
  5031     0657                     i1l1527:
  5032     0657  1FA3               	btfss	i1___aldiv@divisor+3,7
  5033     0658  2E5A               	goto	u157_21
  5034     0659  2E5B               	goto	u157_20
  5035     065A                     u157_21:
  5036     065A  2E68               	goto	i1l340
  5037     065B                     u157_20:
  5038     065B                     i1l1529:
  5039     065B  09A0               	comf	i1___aldiv@divisor,f
  5040     065C  09A1               	comf	i1___aldiv@divisor+1,f
  5041     065D  09A2               	comf	i1___aldiv@divisor+2,f
  5042     065E  09A3               	comf	i1___aldiv@divisor+3,f
  5043     065F  0AA0               	incf	i1___aldiv@divisor,f
  5044     0660  1903               	skipnz
  5045     0661  0AA1               	incf	i1___aldiv@divisor+1,f
  5046     0662  1903               	skipnz
  5047     0663  0AA2               	incf	i1___aldiv@divisor+2,f
  5048     0664  1903               	skipnz
  5049     0665  0AA3               	incf	i1___aldiv@divisor+3,f
  5050     0666  3001               	movlw	1
  5051     0667  00A9               	movwf	i1___aldiv@sign
  5052     0668                     i1l340:
  5053     0668  1FA7               	btfss	i1___aldiv@dividend+3,7
  5054     0669  2E6B               	goto	u158_21
  5055     066A  2E6C               	goto	u158_20
  5056     066B                     u158_21:
  5057     066B  2E79               	goto	i1l1535
  5058     066C                     u158_20:
  5059     066C                     i1l1531:
  5060     066C  09A4               	comf	i1___aldiv@dividend,f
  5061     066D  09A5               	comf	i1___aldiv@dividend+1,f
  5062     066E  09A6               	comf	i1___aldiv@dividend+2,f
  5063     066F  09A7               	comf	i1___aldiv@dividend+3,f
  5064     0670  0AA4               	incf	i1___aldiv@dividend,f
  5065     0671  1903               	skipnz
  5066     0672  0AA5               	incf	i1___aldiv@dividend+1,f
  5067     0673  1903               	skipnz
  5068     0674  0AA6               	incf	i1___aldiv@dividend+2,f
  5069     0675  1903               	skipnz
  5070     0676  0AA7               	incf	i1___aldiv@dividend+3,f
  5071     0677                     i1l1533:
  5072     0677  3001               	movlw	1
  5073     0678  06A9               	xorwf	i1___aldiv@sign,f
  5074     0679                     i1l1535:
  5075     0679  3000               	movlw	0
  5076     067A  00AD               	movwf	i1___aldiv@quotient+3
  5077     067B  3000               	movlw	0
  5078     067C  00AC               	movwf	i1___aldiv@quotient+2
  5079     067D  3000               	movlw	0
  5080     067E  00AB               	movwf	i1___aldiv@quotient+1
  5081     067F  3000               	movlw	0
  5082     0680  00AA               	movwf	i1___aldiv@quotient
  5083     0681                     i1l1537:
  5084     0681  0823               	movf	i1___aldiv@divisor+3,w
  5085     0682  0422               	iorwf	i1___aldiv@divisor+2,w
  5086     0683  0421               	iorwf	i1___aldiv@divisor+1,w
  5087     0684  0420               	iorwf	i1___aldiv@divisor,w
  5088     0685  1903               	skipnz
  5089     0686  2E88               	goto	u159_21
  5090     0687  2E89               	goto	u159_20
  5091     0688                     u159_21:
  5092     0688  2ED4               	goto	i1l1557
  5093     0689                     u159_20:
  5094     0689                     i1l1539:
  5095     0689  3001               	movlw	1
  5096     068A  00A8               	movwf	i1___aldiv@counter
  5097     068B  2E97               	goto	i1l1543
  5098     068C                     i1l1541:
  5099     068C  3001               	movlw	1
  5100     068D  00FD               	movwf	??i1___aldiv
  5101     068E                     u160_25:
  5102     068E  1003               	clrc
  5103     068F  0DA0               	rlf	i1___aldiv@divisor,f
  5104     0690  0DA1               	rlf	i1___aldiv@divisor+1,f
  5105     0691  0DA2               	rlf	i1___aldiv@divisor+2,f
  5106     0692  0DA3               	rlf	i1___aldiv@divisor+3,f
  5107     0693  0BFD               	decfsz	??i1___aldiv,f
  5108     0694  2E8E               	goto	u160_25
  5109     0695  3001               	movlw	1
  5110     0696  07A8               	addwf	i1___aldiv@counter,f
  5111     0697                     i1l1543:
  5112     0697  1FA3               	btfss	i1___aldiv@divisor+3,7
  5113     0698  2E9A               	goto	u161_21
  5114     0699  2E9B               	goto	u161_20
  5115     069A                     u161_21:
  5116     069A  2E8C               	goto	i1l1541
  5117     069B                     u161_20:
  5118     069B                     i1l1545:
  5119     069B  3001               	movlw	1
  5120     069C  00FD               	movwf	??i1___aldiv
  5121     069D                     u162_25:
  5122     069D  1003               	clrc
  5123     069E  0DAA               	rlf	i1___aldiv@quotient,f
  5124     069F  0DAB               	rlf	i1___aldiv@quotient+1,f
  5125     06A0  0DAC               	rlf	i1___aldiv@quotient+2,f
  5126     06A1  0DAD               	rlf	i1___aldiv@quotient+3,f
  5127     06A2  0BFD               	decfsz	??i1___aldiv,f
  5128     06A3  2E9D               	goto	u162_25
  5129     06A4                     i1l1547:
  5130     06A4  0823               	movf	i1___aldiv@divisor+3,w
  5131     06A5  0227               	subwf	i1___aldiv@dividend+3,w
  5132     06A6  1D03               	skipz
  5133     06A7  2EB2               	goto	u163_25
  5134     06A8  0822               	movf	i1___aldiv@divisor+2,w
  5135     06A9  0226               	subwf	i1___aldiv@dividend+2,w
  5136     06AA  1D03               	skipz
  5137     06AB  2EB2               	goto	u163_25
  5138     06AC  0821               	movf	i1___aldiv@divisor+1,w
  5139     06AD  0225               	subwf	i1___aldiv@dividend+1,w
  5140     06AE  1D03               	skipz
  5141     06AF  2EB2               	goto	u163_25
  5142     06B0  0820               	movf	i1___aldiv@divisor,w
  5143     06B1  0224               	subwf	i1___aldiv@dividend,w
  5144     06B2                     u163_25:
  5145     06B2  1C03               	skipc
  5146     06B3  2EB5               	goto	u163_21
  5147     06B4  2EB6               	goto	u163_20
  5148     06B5                     u163_21:
  5149     06B5  2EC5               	goto	i1l1553
  5150     06B6                     u163_20:
  5151     06B6                     i1l1549:
  5152     06B6  0820               	movf	i1___aldiv@divisor,w
  5153     06B7  02A4               	subwf	i1___aldiv@dividend,f
  5154     06B8  0821               	movf	i1___aldiv@divisor+1,w
  5155     06B9  1C03               	skipc
  5156     06BA  0F21               	incfsz	i1___aldiv@divisor+1,w
  5157     06BB  02A5               	subwf	i1___aldiv@dividend+1,f
  5158     06BC  0822               	movf	i1___aldiv@divisor+2,w
  5159     06BD  1C03               	skipc
  5160     06BE  0F22               	incfsz	i1___aldiv@divisor+2,w
  5161     06BF  02A6               	subwf	i1___aldiv@dividend+2,f
  5162     06C0  0823               	movf	i1___aldiv@divisor+3,w
  5163     06C1  1C03               	skipc
  5164     06C2  0F23               	incfsz	i1___aldiv@divisor+3,w
  5165     06C3  02A7               	subwf	i1___aldiv@dividend+3,f
  5166     06C4                     i1l1551:
  5167     06C4  142A               	bsf	i1___aldiv@quotient,0
  5168     06C5                     i1l1553:
  5169     06C5  3001               	movlw	1
  5170     06C6                     u164_25:
  5171     06C6  1003               	clrc
  5172     06C7  0CA3               	rrf	i1___aldiv@divisor+3,f
  5173     06C8  0CA2               	rrf	i1___aldiv@divisor+2,f
  5174     06C9  0CA1               	rrf	i1___aldiv@divisor+1,f
  5175     06CA  0CA0               	rrf	i1___aldiv@divisor,f
  5176     06CB  3EFF               	addlw	-1
  5177     06CC  1D03               	skipz
  5178     06CD  2EC6               	goto	u164_25
  5179     06CE                     i1l1555:
  5180     06CE  3001               	movlw	1
  5181     06CF  02A8               	subwf	i1___aldiv@counter,f
  5182     06D0  1D03               	btfss	3,2
  5183     06D1  2ED3               	goto	u165_21
  5184     06D2  2ED4               	goto	u165_20
  5185     06D3                     u165_21:
  5186     06D3  2E9B               	goto	i1l1545
  5187     06D4                     u165_20:
  5188     06D4                     i1l1557:
  5189     06D4  0829               	movf	i1___aldiv@sign,w
  5190     06D5  1903               	btfsc	3,2
  5191     06D6  2ED8               	goto	u166_21
  5192     06D7  2ED9               	goto	u166_20
  5193     06D8                     u166_21:
  5194     06D8  2EE4               	goto	i1l1561
  5195     06D9                     u166_20:
  5196     06D9                     i1l1559:
  5197     06D9  09AA               	comf	i1___aldiv@quotient,f
  5198     06DA  09AB               	comf	i1___aldiv@quotient+1,f
  5199     06DB  09AC               	comf	i1___aldiv@quotient+2,f
  5200     06DC  09AD               	comf	i1___aldiv@quotient+3,f
  5201     06DD  0AAA               	incf	i1___aldiv@quotient,f
  5202     06DE  1903               	skipnz
  5203     06DF  0AAB               	incf	i1___aldiv@quotient+1,f
  5204     06E0  1903               	skipnz
  5205     06E1  0AAC               	incf	i1___aldiv@quotient+2,f
  5206     06E2  1903               	skipnz
  5207     06E3  0AAD               	incf	i1___aldiv@quotient+3,f
  5208     06E4                     i1l1561:
  5209     06E4  082D               	movf	i1___aldiv@quotient+3,w
  5210     06E5  00A3               	movwf	?i1___aldiv+3
  5211     06E6  082C               	movf	i1___aldiv@quotient+2,w
  5212     06E7  00A2               	movwf	?i1___aldiv+2
  5213     06E8  082B               	movf	i1___aldiv@quotient+1,w
  5214     06E9  00A1               	movwf	?i1___aldiv+1
  5215     06EA  082A               	movf	i1___aldiv@quotient,w
  5216     06EB  00A0               	movwf	?i1___aldiv
  5217     06EC                     i1l350:
  5218     06EC  0008               	return
  5219     06ED                     __end_ofi1___aldiv:
  5220                           
  5221                           	psect	text28
  5222     0EC4                     __ptext28:	
  5223 ;; *************** function _Pump_on *****************
  5224 ;; Defined at:
  5225 ;;		line 294 in file "main.c"
  5226 ;; Parameters:    Size  Location     Type
  5227 ;;		None
  5228 ;; Auto vars:     Size  Location     Type
  5229 ;;		None
  5230 ;; Return value:  Size  Location     Type
  5231 ;;                  1    wreg      void 
  5232 ;; Registers used:
  5233 ;;		wreg, status,2, status,0, pclath, cstack
  5234 ;; Tracked objects:
  5235 ;;		On entry : 0/0
  5236 ;;		On exit  : 0/0
  5237 ;;		Unchanged: 0/0
  5238 ;; Data sizes:     COMMON   BANK0   BANK1   BANK3   BANK2
  5239 ;;      Params:         0       0       0       0       0
  5240 ;;      Locals:         0       0       0       0       0
  5241 ;;      Temps:          0       0       0       0       0
  5242 ;;      Totals:         0       0       0       0       0
  5243 ;;Total ram usage:        0 bytes
  5244 ;; Hardware stack levels used: 1
  5245 ;; Hardware stack levels required when called: 3
  5246 ;; This function calls:
  5247 ;;		_H_Bridge_PWM
  5248 ;;		_PWM_Init_H
  5249 ;;		_Pump_off
  5250 ;;		i1_delay_ms
  5251 ;; This function is called by:
  5252 ;;		_isr
  5253 ;; This function uses a non-reentrant model
  5254 ;;
  5255                           
  5256     0EC4                     _Pump_on:	
  5257                           ;psect for function _Pump_on
  5258                           
  5259     0EC4                     i1l1659:	
  5260                           ;incstack = 0
  5261 ;; hardware stack exceeded
  5262                           ; Regs used in _Pump_on: [wreg+status,2+status,0+pclath+cstack]
  5263                           
  5264                           
  5265                           ;main.c: 295:     PORTB |= (0b00010000);
  5266     0EC4  1283               	bcf	3,5	;RP0=0, select bank0
  5267     0EC5  1303               	bcf	3,6	;RP1=0, select bank0
  5268     0EC6  1606               	bsf	6,4	;volatile
  5269     0EC7                     i1l1661:
  5270                           
  5271                           ;main.c: 296:     PORTB &= ~(0b00100000);
  5272     0EC7  30DF               	movlw	223
  5273     0EC8  0586               	andwf	6,f	;volatile
  5274     0EC9                     i1l1663:
  5275                           
  5276                           ;main.c: 298:     PWM_Init_H();
  5277     0EC9  120A  158A  246E  120A  158A  	fcall	_PWM_Init_H
  5278     0ECE                     i1l1665:
  5279                           
  5280                           ;main.c: 299:     delay_ms(200);
  5281     0ECE  30C8               	movlw	200
  5282     0ECF  00F4               	movwf	i1delay_ms@x
  5283     0ED0  3000               	movlw	0
  5284     0ED1  00F5               	movwf	i1delay_ms@x+1
  5285     0ED2  120A  158A  24BE  120A  158A  	fcall	i1_delay_ms
  5286     0ED7                     i1l1667:
  5287                           
  5288                           ;main.c: 302:     H_Bridge_PWM(80);
  5289     0ED7  3050               	movlw	80
  5290     0ED8  1283               	bcf	3,5	;RP0=0, select bank0
  5291     0ED9  1303               	bcf	3,6	;RP1=0, select bank0
  5292     0EDA  00AD               	movwf	H_Bridge_PWM@duty_percent
  5293     0EDB  3000               	movlw	0
  5294     0EDC  00AE               	movwf	H_Bridge_PWM@duty_percent+1
  5295     0EDD  120A  158A  2677  120A  158A  	fcall	_H_Bridge_PWM
  5296     0EE2                     i1l1669:
  5297                           
  5298                           ;main.c: 303:     delay_ms(10000);
  5299     0EE2  3010               	movlw	16
  5300     0EE3  00F4               	movwf	i1delay_ms@x
  5301     0EE4  3027               	movlw	39
  5302     0EE5  00F5               	movwf	i1delay_ms@x+1
  5303     0EE6  120A  158A  24BE  120A  158A  	fcall	i1_delay_ms
  5304     0EEB                     i1l1671:
  5305                           
  5306                           ;main.c: 305:     H_Bridge_PWM(50);
  5307     0EEB  3032               	movlw	50
  5308     0EEC  1283               	bcf	3,5	;RP0=0, select bank0
  5309     0EED  1303               	bcf	3,6	;RP1=0, select bank0
  5310     0EEE  00AD               	movwf	H_Bridge_PWM@duty_percent
  5311     0EEF  3000               	movlw	0
  5312     0EF0  00AE               	movwf	H_Bridge_PWM@duty_percent+1
  5313     0EF1  120A  158A  2677  120A  158A  	fcall	_H_Bridge_PWM
  5314     0EF6                     i1l1673:
  5315                           
  5316                           ;main.c: 306:     delay_ms(6000);
  5317     0EF6  3070               	movlw	112
  5318     0EF7  00F4               	movwf	i1delay_ms@x
  5319     0EF8  3017               	movlw	23
  5320     0EF9  00F5               	movwf	i1delay_ms@x+1
  5321     0EFA  120A  158A  24BE  120A  158A  	fcall	i1_delay_ms
  5322     0EFF                     i1l1675:
  5323                           
  5324                           ;main.c: 308:     H_Bridge_PWM(30);
  5325     0EFF  301E               	movlw	30
  5326     0F00  1283               	bcf	3,5	;RP0=0, select bank0
  5327     0F01  1303               	bcf	3,6	;RP1=0, select bank0
  5328     0F02  00AD               	movwf	H_Bridge_PWM@duty_percent
  5329     0F03  3000               	movlw	0
  5330     0F04  00AE               	movwf	H_Bridge_PWM@duty_percent+1
  5331     0F05  120A  158A  2677  120A  158A  	fcall	_H_Bridge_PWM
  5332     0F0A                     i1l1677:
  5333                           
  5334                           ;main.c: 309:     delay_ms(3000);
  5335     0F0A  30B8               	movlw	184
  5336     0F0B  00F4               	movwf	i1delay_ms@x
  5337     0F0C  300B               	movlw	11
  5338     0F0D  00F5               	movwf	i1delay_ms@x+1
  5339     0F0E  120A  158A  24BE  120A  158A  	fcall	i1_delay_ms
  5340     0F13                     i1l1679:
  5341                           
  5342                           ;main.c: 310:     Pump_off();
  5343     0F13  120A  158A  247C  120A  158A  	fcall	_Pump_off
  5344     0F18                     i1l162:
  5345     0F18  0008               	return
  5346     0F19                     __end_of_Pump_on:
  5347                           
  5348                           	psect	text29
  5349     0CBE                     __ptext29:	
  5350 ;; *************** function i1_delay_ms *****************
  5351 ;; Defined at:
  5352 ;;		line 338 in file "main.c"
  5353 ;; Parameters:    Size  Location     Type
  5354 ;;  x               2    4[COMMON] unsigned int 
  5355 ;; Auto vars:     Size  Location     Type
  5356 ;;  i               2    6[COMMON] unsigned int 
  5357 ;;  j               2    0        unsigned int 
  5358 ;; Return value:  Size  Location     Type
  5359 ;;                  1    wreg      void 
  5360 ;; Registers used:
  5361 ;;		wreg, status,2, status,0, pclath, cstack
  5362 ;; Tracked objects:
  5363 ;;		On entry : 0/0
  5364 ;;		On exit  : 0/0
  5365 ;;		Unchanged: 0/0
  5366 ;; Data sizes:     COMMON   BANK0   BANK1   BANK3   BANK2
  5367 ;;      Params:         2       0       0       0       0
  5368 ;;      Locals:         2       0       0       0       0
  5369 ;;      Temps:          0       0       0       0       0
  5370 ;;      Totals:         4       0       0       0       0
  5371 ;;Total ram usage:        4 bytes
  5372 ;; Hardware stack levels used: 1
  5373 ;; Hardware stack levels required when called: 1
  5374 ;; This function calls:
  5375 ;;		i1_delay_us
  5376 ;; This function is called by:
  5377 ;;		_isr
  5378 ;;		_Pump_on
  5379 ;; This function uses a non-reentrant model
  5380 ;;
  5381                           
  5382     0CBE                     i1_delay_ms:	
  5383                           ;psect for function i1_delay_ms
  5384                           
  5385     0CBE                     i1l1651:	
  5386                           ;incstack = 0
  5387                           ; Regs used in i1_delay_ms: [wreg+status,2+status,0+pclath+cstack]
  5388                           
  5389                           
  5390                           ;main.c: 339:     unsigned int i, j;;main.c: 340:     for (i = 0; i < x; i++) {
  5391     0CBE  01F6               	clrf	i1delay_ms@i
  5392     0CBF  01F7               	clrf	i1delay_ms@i+1
  5393     0CC0  2CD0               	goto	i1l1657
  5394     0CC1                     i1l1653:
  5395                           
  5396                           ;main.c: 341:         delay_us(1000);
  5397     0CC1  30E8               	movlw	232
  5398     0CC2  00F0               	movwf	i1delay_us@x
  5399     0CC3  3003               	movlw	3
  5400     0CC4  00F1               	movwf	i1delay_us@x+1
  5401     0CC5  120A  158A  248E  120A  158A  	fcall	i1_delay_us
  5402     0CCA                     i1l1655:
  5403                           
  5404                           ;main.c: 342:     }
  5405     0CCA  3001               	movlw	1
  5406     0CCB  07F6               	addwf	i1delay_ms@i,f
  5407     0CCC  1803               	skipnc
  5408     0CCD  0AF7               	incf	i1delay_ms@i+1,f
  5409     0CCE  3000               	movlw	0
  5410     0CCF  07F7               	addwf	i1delay_ms@i+1,f
  5411     0CD0                     i1l1657:
  5412     0CD0  0875               	movf	i1delay_ms@x+1,w
  5413     0CD1  0277               	subwf	i1delay_ms@i+1,w
  5414     0CD2  1D03               	skipz
  5415     0CD3  2CD6               	goto	u187_25
  5416     0CD4  0874               	movf	i1delay_ms@x,w
  5417     0CD5  0276               	subwf	i1delay_ms@i,w
  5418     0CD6                     u187_25:
  5419     0CD6  1C03               	skipc
  5420     0CD7  2CD9               	goto	u187_21
  5421     0CD8  2CDA               	goto	u187_20
  5422     0CD9                     u187_21:
  5423     0CD9  2CC1               	goto	i1l1653
  5424     0CDA                     u187_20:
  5425     0CDA                     i1l183:
  5426     0CDA  0008               	return
  5427     0CDB                     __end_ofi1_delay_ms:
  5428                           
  5429                           	psect	text30
  5430     0C8E                     __ptext30:	
  5431 ;; *************** function i1_delay_us *****************
  5432 ;; Defined at:
  5433 ;;		line 344 in file "main.c"
  5434 ;; Parameters:    Size  Location     Type
  5435 ;;  x               2    0[COMMON] unsigned int 
  5436 ;; Auto vars:     Size  Location     Type
  5437 ;;  i               2    2[COMMON] unsigned int 
  5438 ;; Return value:  Size  Location     Type
  5439 ;;                  1    wreg      void 
  5440 ;; Registers used:
  5441 ;;		wreg, status,2
  5442 ;; Tracked objects:
  5443 ;;		On entry : 0/0
  5444 ;;		On exit  : 0/0
  5445 ;;		Unchanged: 0/0
  5446 ;; Data sizes:     COMMON   BANK0   BANK1   BANK3   BANK2
  5447 ;;      Params:         2       0       0       0       0
  5448 ;;      Locals:         2       0       0       0       0
  5449 ;;      Temps:          0       0       0       0       0
  5450 ;;      Totals:         4       0       0       0       0
  5451 ;;Total ram usage:        4 bytes
  5452 ;; Hardware stack levels used: 1
  5453 ;; This function calls:
  5454 ;;		Nothing
  5455 ;; This function is called by:
  5456 ;;		i1_delay_ms
  5457 ;; This function uses a non-reentrant model
  5458 ;;
  5459                           
  5460     0C8E                     i1_delay_us:	
  5461                           ;psect for function i1_delay_us
  5462                           
  5463     0C8E                     i1l1507:	
  5464                           ;incstack = 0
  5465                           ; Regs used in i1_delay_us: [wreg+status,2]
  5466                           
  5467                           
  5468                           ;main.c: 345:     unsigned int i;;main.c: 346:     for (i = 0; i < x; i++) {
  5469     0C8E  01F2               	clrf	i1delay_us@i
  5470     0C8F  01F3               	clrf	i1delay_us@i+1
  5471     0C90  2C99               	goto	i1l186
  5472     0C91                     i1l187:
  5473     0C91  0000               	nop	;# 
  5474     0C92  0000               	nop	;# 
  5475     0C93                     i1l1509:
  5476                           
  5477                           ;main.c: 349:     }
  5478     0C93  3001               	movlw	1
  5479     0C94  07F2               	addwf	i1delay_us@i,f
  5480     0C95  1803               	skipnc
  5481     0C96  0AF3               	incf	i1delay_us@i+1,f
  5482     0C97  3000               	movlw	0
  5483     0C98  07F3               	addwf	i1delay_us@i+1,f
  5484     0C99                     i1l186:
  5485     0C99  0871               	movf	i1delay_us@x+1,w
  5486     0C9A  0273               	subwf	i1delay_us@i+1,w
  5487     0C9B  1D03               	skipz
  5488     0C9C  2C9F               	goto	u152_25
  5489     0C9D  0870               	movf	i1delay_us@x,w
  5490     0C9E  0272               	subwf	i1delay_us@i,w
  5491     0C9F                     u152_25:
  5492     0C9F  1C03               	skipc
  5493     0CA0  2CA2               	goto	u152_21
  5494     0CA1  2CA3               	goto	u152_20
  5495     0CA2                     u152_21:
  5496     0CA2  2C91               	goto	i1l187
  5497     0CA3                     u152_20:
  5498     0CA3                     i1l189:
  5499     0CA3  0008               	return
  5500     0CA4                     __end_ofi1_delay_us:
  5501                           
  5502                           	psect	text31
  5503     0C7C                     __ptext31:	
  5504 ;; *************** function _Pump_off *****************
  5505 ;; Defined at:
  5506 ;;		line 313 in file "main.c"
  5507 ;; Parameters:    Size  Location     Type
  5508 ;;		None
  5509 ;; Auto vars:     Size  Location     Type
  5510 ;;		None
  5511 ;; Return value:  Size  Location     Type
  5512 ;;                  1    wreg      void 
  5513 ;; Registers used:
  5514 ;;		wreg, status,2, status,0, pclath, cstack
  5515 ;; Tracked objects:
  5516 ;;		On entry : 0/0
  5517 ;;		On exit  : 0/0
  5518 ;;		Unchanged: 0/0
  5519 ;; Data sizes:     COMMON   BANK0   BANK1   BANK3   BANK2
  5520 ;;      Params:         0       0       0       0       0
  5521 ;;      Locals:         0       0       0       0       0
  5522 ;;      Temps:          0       0       0       0       0
  5523 ;;      Totals:         0       0       0       0       0
  5524 ;;Total ram usage:        0 bytes
  5525 ;; Hardware stack levels used: 1
  5526 ;; Hardware stack levels required when called: 2
  5527 ;; This function calls:
  5528 ;;		_H_Bridge_PWM
  5529 ;;		i1_PWM_Init_S
  5530 ;; This function is called by:
  5531 ;;		_isr
  5532 ;;		_Pump_on
  5533 ;; This function uses a non-reentrant model
  5534 ;;
  5535                           
  5536     0C7C                     _Pump_off:	
  5537                           ;psect for function _Pump_off
  5538                           
  5539     0C7C                     i1l1565:	
  5540                           ;incstack = 0
  5541 ;; hardware stack exceeded
  5542                           ; Regs used in _Pump_off: [wreg+status,2+status,0+pclath+cstack]
  5543                           
  5544                           
  5545                           ;main.c: 314:     PORTB &= ~(0b00110000);
  5546     0C7C  30CF               	movlw	207
  5547     0C7D  1283               	bcf	3,5	;RP0=0, select bank0
  5548     0C7E  1303               	bcf	3,6	;RP1=0, select bank0
  5549     0C7F  0586               	andwf	6,f	;volatile
  5550     0C80                     i1l1567:
  5551                           
  5552                           ;main.c: 315:     H_Bridge_PWM(0);
  5553     0C80  3000               	movlw	0
  5554     0C81  00AD               	movwf	H_Bridge_PWM@duty_percent
  5555     0C82  00AE               	movwf	H_Bridge_PWM@duty_percent+1
  5556     0C83  120A  158A  2677  120A  158A  	fcall	_H_Bridge_PWM
  5557     0C88                     i1l1569:
  5558                           
  5559                           ;main.c: 316:     PWM_Init_S();
  5560     0C88  120A  158A  2432  120A  158A  	fcall	i1_PWM_Init_S
  5561     0C8D                     i1l165:
  5562     0C8D  0008               	return
  5563     0C8E                     __end_of_Pump_off:
  5564                           
  5565                           	psect	text32
  5566     0C32                     __ptext32:	
  5567 ;; *************** function i1_PWM_Init_S *****************
  5568 ;; Defined at:
  5569 ;;		line 197 in file "main.c"
  5570 ;; Parameters:    Size  Location     Type
  5571 ;;		None
  5572 ;; Auto vars:     Size  Location     Type
  5573 ;;		None
  5574 ;; Return value:  Size  Location     Type
  5575 ;;                  1    wreg      void 
  5576 ;; Registers used:
  5577 ;;		status,2
  5578 ;; Tracked objects:
  5579 ;;		On entry : 0/0
  5580 ;;		On exit  : 0/0
  5581 ;;		Unchanged: 0/0
  5582 ;; Data sizes:     COMMON   BANK0   BANK1   BANK3   BANK2
  5583 ;;      Params:         0       0       0       0       0
  5584 ;;      Locals:         0       0       0       0       0
  5585 ;;      Temps:          0       0       0       0       0
  5586 ;;      Totals:         0       0       0       0       0
  5587 ;;Total ram usage:        0 bytes
  5588 ;; Hardware stack levels used: 1
  5589 ;; This function calls:
  5590 ;;		Nothing
  5591 ;; This function is called by:
  5592 ;;		_Pump_off
  5593 ;; This function uses a non-reentrant model
  5594 ;;
  5595                           
  5596     0C32                     i1_PWM_Init_S:	
  5597                           ;psect for function i1_PWM_Init_S
  5598                           
  5599     0C32                     i1l1503:	
  5600                           ;incstack = 0
  5601                           ; Regs used in i1_PWM_Init_S: [status,2]
  5602                           
  5603                           
  5604                           ;main.c: 199:     PR2 = 249;
  5605     0C32  30F9               	movlw	249
  5606     0C33  1683               	bsf	3,5	;RP0=1, select bank1
  5607     0C34  1303               	bcf	3,6	;RP1=0, select bank1
  5608     0C35  0092               	movwf	18	;volatile
  5609                           
  5610                           ;main.c: 200:     T2CON = 0b00000111;
  5611     0C36  3007               	movlw	7
  5612     0C37  1283               	bcf	3,5	;RP0=0, select bank0
  5613     0C38  1303               	bcf	3,6	;RP1=0, select bank0
  5614     0C39  0092               	movwf	18	;volatile
  5615                           
  5616                           ;main.c: 201:     CCP1CON = 0b00001100;
  5617     0C3A  300C               	movlw	12
  5618     0C3B  0097               	movwf	23	;volatile
  5619     0C3C                     i1l1505:
  5620                           
  5621                           ;main.c: 202:     CCPR1L = 0;
  5622     0C3C  0195               	clrf	21	;volatile
  5623     0C3D                     i1l123:
  5624     0C3D  0008               	return
  5625     0C3E                     __end_ofi1_PWM_Init_S:
  5626                           
  5627                           	psect	text33
  5628     0E77                     __ptext33:	
  5629 ;; *************** function _H_Bridge_PWM *****************
  5630 ;; Defined at:
  5631 ;;		line 221 in file "main.c"
  5632 ;; Parameters:    Size  Location     Type
  5633 ;;  duty_percent    2   13[BANK0 ] unsigned int 
  5634 ;; Auto vars:     Size  Location     Type
  5635 ;;  duty            2   17[BANK0 ] unsigned int 
  5636 ;; Return value:  Size  Location     Type
  5637 ;;                  1    wreg      void 
  5638 ;; Registers used:
  5639 ;;		wreg, status,2, status,0, pclath, cstack
  5640 ;; Tracked objects:
  5641 ;;		On entry : 0/0
  5642 ;;		On exit  : 0/0
  5643 ;;		Unchanged: 0/0
  5644 ;; Data sizes:     COMMON   BANK0   BANK1   BANK3   BANK2
  5645 ;;      Params:         0       2       0       0       0
  5646 ;;      Locals:         0       2       0       0       0
  5647 ;;      Temps:          0       2       0       0       0
  5648 ;;      Totals:         0       6       0       0       0
  5649 ;;Total ram usage:        6 bytes
  5650 ;; Hardware stack levels used: 1
  5651 ;; Hardware stack levels required when called: 1
  5652 ;; This function calls:
  5653 ;;		___lldiv
  5654 ;;		i1___lmul
  5655 ;; This function is called by:
  5656 ;;		_Pump_on
  5657 ;;		_Pump_off
  5658 ;; This function uses a non-reentrant model
  5659 ;;
  5660                           
  5661     0E77                     _H_Bridge_PWM:	
  5662                           ;psect for function _H_Bridge_PWM
  5663                           
  5664     0E77                     i1l1495:	
  5665                           ;incstack = 0
  5666 ;; hardware stack exceeded
  5667                           ; Regs used in _H_Bridge_PWM: [wreg+status,2+status,0+pclath+cstack]
  5668                           
  5669                           
  5670                           ;main.c: 222:     unsigned int duty;;main.c: 225:     duty = ((unsigned long) duty_perce
      +                          nt * 1023) / 100;
  5671     0E77  3000               	movlw	0
  5672     0E78  1283               	bcf	3,5	;RP0=0, select bank0
  5673     0E79  1303               	bcf	3,6	;RP1=0, select bank0
  5674     0E7A  00A3               	movwf	___lldiv@divisor+3
  5675     0E7B  3000               	movlw	0
  5676     0E7C  00A2               	movwf	___lldiv@divisor+2
  5677     0E7D  3000               	movlw	0
  5678     0E7E  00A1               	movwf	___lldiv@divisor+1
  5679     0E7F  3064               	movlw	100
  5680     0E80  00A0               	movwf	___lldiv@divisor
  5681     0E81  082D               	movf	H_Bridge_PWM@duty_percent,w
  5682     0E82  00F0               	movwf	i1___lmul@multiplier
  5683     0E83  082E               	movf	H_Bridge_PWM@duty_percent+1,w
  5684     0E84  00F1               	movwf	i1___lmul@multiplier+1
  5685     0E85  01F2               	clrf	i1___lmul@multiplier+2
  5686     0E86  01F3               	clrf	i1___lmul@multiplier+3
  5687     0E87  3000               	movlw	0
  5688     0E88  00F7               	movwf	i1___lmul@multiplicand+3
  5689     0E89  3000               	movlw	0
  5690     0E8A  00F6               	movwf	i1___lmul@multiplicand+2
  5691     0E8B  3003               	movlw	3
  5692     0E8C  00F5               	movwf	i1___lmul@multiplicand+1
  5693     0E8D  30FF               	movlw	255
  5694     0E8E  00F4               	movwf	i1___lmul@multiplicand
  5695     0E8F  120A  158A  25E9  120A  158A  	fcall	i1___lmul
  5696     0E94  0873               	movf	?i1___lmul+3,w
  5697     0E95  1283               	bcf	3,5	;RP0=0, select bank0
  5698     0E96  1303               	bcf	3,6	;RP1=0, select bank0
  5699     0E97  00A7               	movwf	___lldiv@dividend+3
  5700     0E98  0872               	movf	?i1___lmul+2,w
  5701     0E99  00A6               	movwf	___lldiv@dividend+2
  5702     0E9A  0871               	movf	?i1___lmul+1,w
  5703     0E9B  00A5               	movwf	___lldiv@dividend+1
  5704     0E9C  0870               	movf	?i1___lmul,w
  5705     0E9D  00A4               	movwf	___lldiv@dividend
  5706     0E9E  120A  158A  2719  120A  158A  	fcall	___lldiv
  5707     0EA3  1283               	bcf	3,5	;RP0=0, select bank0
  5708     0EA4  1303               	bcf	3,6	;RP1=0, select bank0
  5709     0EA5  0821               	movf	?___lldiv+1,w
  5710     0EA6  00B2               	movwf	H_Bridge_PWM@duty+1
  5711     0EA7  0820               	movf	?___lldiv,w
  5712     0EA8  00B1               	movwf	H_Bridge_PWM@duty
  5713     0EA9                     i1l1497:
  5714                           
  5715                           ;main.c: 228:     CCPR2L = duty >> 2;
  5716     0EA9  0832               	movf	H_Bridge_PWM@duty+1,w
  5717     0EAA  00B0               	movwf	??_H_Bridge_PWM+1
  5718     0EAB  0831               	movf	H_Bridge_PWM@duty,w
  5719     0EAC  00AF               	movwf	??_H_Bridge_PWM
  5720     0EAD  1003               	clrc
  5721     0EAE  0CB0               	rrf	??_H_Bridge_PWM+1,f
  5722     0EAF  0CAF               	rrf	??_H_Bridge_PWM,f
  5723     0EB0  1003               	clrc
  5724     0EB1  0CB0               	rrf	??_H_Bridge_PWM+1,f
  5725     0EB2  0CAF               	rrf	??_H_Bridge_PWM,f
  5726     0EB3  082F               	movf	??_H_Bridge_PWM,w
  5727     0EB4  009B               	movwf	27	;volatile
  5728     0EB5                     i1l1499:
  5729                           
  5730                           ;main.c: 231:     CCP2CON &= 0xCF;
  5731     0EB5  30CF               	movlw	207
  5732     0EB6  059D               	andwf	29,f	;volatile
  5733     0EB7                     i1l1501:
  5734                           
  5735                           ;main.c: 234:     CCP2CON |= ((duty & 0x03) << 4);
  5736     0EB7  0831               	movf	H_Bridge_PWM@duty,w	;volatile
  5737     0EB8  3903               	andlw	3
  5738     0EB9  00AF               	movwf	??_H_Bridge_PWM
  5739     0EBA  3003               	movlw	3
  5740     0EBB                     u151_25:
  5741     0EBB  1003               	clrc
  5742     0EBC  0DAF               	rlf	??_H_Bridge_PWM,f
  5743     0EBD  3EFF               	addlw	-1
  5744     0EBE  1D03               	skipz
  5745     0EBF  2EBB               	goto	u151_25
  5746     0EC0  1003               	clrc
  5747     0EC1  0D2F               	rlf	??_H_Bridge_PWM,w
  5748     0EC2  049D               	iorwf	29,f	;volatile
  5749     0EC3                     i1l129:
  5750     0EC3  0008               	return
  5751     0EC4                     __end_of_H_Bridge_PWM:
  5752                           
  5753                           	psect	text34
  5754     0DE9                     __ptext34:	
  5755 ;; *************** function i1___lmul *****************
  5756 ;; Defined at:
  5757 ;;		line 15 in file "C:\Program Files\Microchip\xc8\v3.00\pic\sources\c99\common\Umul32.c"
  5758 ;; Parameters:    Size  Location     Type
  5759 ;;  multiplier      4    0[COMMON] unsigned long 
  5760 ;;  multiplicand    4    4[COMMON] unsigned long 
  5761 ;; Auto vars:     Size  Location     Type
  5762 ;;  product         4    9[COMMON] unsigned long 
  5763 ;; Return value:  Size  Location     Type
  5764 ;;                  4    0[COMMON] unsigned long 
  5765 ;; Registers used:
  5766 ;;		wreg, status,2, status,0
  5767 ;; Tracked objects:
  5768 ;;		On entry : 0/0
  5769 ;;		On exit  : 0/0
  5770 ;;		Unchanged: 0/0
  5771 ;; Data sizes:     COMMON   BANK0   BANK1   BANK3   BANK2
  5772 ;;      Params:         8       0       0       0       0
  5773 ;;      Locals:         4       0       0       0       0
  5774 ;;      Temps:          1       0       0       0       0
  5775 ;;      Totals:        13       0       0       0       0
  5776 ;;Total ram usage:       13 bytes
  5777 ;; Hardware stack levels used: 1
  5778 ;; This function calls:
  5779 ;;		Nothing
  5780 ;; This function is called by:
  5781 ;;		_H_Bridge_PWM
  5782 ;;		i1_Set_PWM_Duty
  5783 ;; This function uses a non-reentrant model
  5784 ;;
  5785                           
  5786     0DE9                     i1___lmul:	
  5787                           ;psect for function i1___lmul
  5788                           
  5789     0DE9                     i1l1481:	
  5790                           ;incstack = 0
  5791                           ; Regs used in i1___lmul: [wreg+status,2+status,0]
  5792                           
  5793     0DE9  3000               	movlw	0
  5794     0DEA  00FC               	movwf	i1___lmul@product+3
  5795     0DEB  3000               	movlw	0
  5796     0DEC  00FB               	movwf	i1___lmul@product+2
  5797     0DED  3000               	movlw	0
  5798     0DEE  00FA               	movwf	i1___lmul@product+1
  5799     0DEF  3000               	movlw	0
  5800     0DF0  00F9               	movwf	i1___lmul@product
  5801     0DF1                     i1l1483:
  5802     0DF1  1C70               	btfss	i1___lmul@multiplier,0
  5803     0DF2  2DF4               	goto	u146_21
  5804     0DF3  2DF5               	goto	u146_20
  5805     0DF4                     u146_21:
  5806     0DF4  2E0C               	goto	i1l1487
  5807     0DF5                     u146_20:
  5808     0DF5                     i1l1485:
  5809     0DF5  0874               	movf	i1___lmul@multiplicand,w
  5810     0DF6  07F9               	addwf	i1___lmul@product,f
  5811     0DF7  0875               	movf	i1___lmul@multiplicand+1,w
  5812     0DF8  1103               	clrz
  5813     0DF9  1803               	skipnc
  5814     0DFA  3E01               	addlw	1
  5815     0DFB  1903               	skipnz
  5816     0DFC  2DFE               	goto	u147_21
  5817     0DFD  07FA               	addwf	i1___lmul@product+1,f
  5818     0DFE                     u147_21:
  5819     0DFE  0876               	movf	i1___lmul@multiplicand+2,w
  5820     0DFF  1103               	clrz
  5821     0E00  1803               	skipnc
  5822     0E01  3E01               	addlw	1
  5823     0E02  1903               	skipnz
  5824     0E03  2E05               	goto	u147_22
  5825     0E04  07FB               	addwf	i1___lmul@product+2,f
  5826     0E05                     u147_22:
  5827     0E05  0877               	movf	i1___lmul@multiplicand+3,w
  5828     0E06  1103               	clrz
  5829     0E07  1803               	skipnc
  5830     0E08  3E01               	addlw	1
  5831     0E09  1903               	skipnz
  5832     0E0A  2E0C               	goto	u147_23
  5833     0E0B  07FC               	addwf	i1___lmul@product+3,f
  5834     0E0C                     u147_23:
  5835     0E0C                     i1l1487:
  5836     0E0C  3001               	movlw	1
  5837     0E0D  00F8               	movwf	??i1___lmul
  5838     0E0E                     u148_25:
  5839     0E0E  1003               	clrc
  5840     0E0F  0DF4               	rlf	i1___lmul@multiplicand,f
  5841     0E10  0DF5               	rlf	i1___lmul@multiplicand+1,f
  5842     0E11  0DF6               	rlf	i1___lmul@multiplicand+2,f
  5843     0E12  0DF7               	rlf	i1___lmul@multiplicand+3,f
  5844     0E13  0BF8               	decfsz	??i1___lmul,f
  5845     0E14  2E0E               	goto	u148_25
  5846     0E15                     i1l1489:
  5847     0E15  3001               	movlw	1
  5848     0E16                     u149_25:
  5849     0E16  1003               	clrc
  5850     0E17  0CF3               	rrf	i1___lmul@multiplier+3,f
  5851     0E18  0CF2               	rrf	i1___lmul@multiplier+2,f
  5852     0E19  0CF1               	rrf	i1___lmul@multiplier+1,f
  5853     0E1A  0CF0               	rrf	i1___lmul@multiplier,f
  5854     0E1B  3EFF               	addlw	-1
  5855     0E1C  1D03               	skipz
  5856     0E1D  2E16               	goto	u149_25
  5857     0E1E  0873               	movf	i1___lmul@multiplier+3,w
  5858     0E1F  0472               	iorwf	i1___lmul@multiplier+2,w
  5859     0E20  0471               	iorwf	i1___lmul@multiplier+1,w
  5860     0E21  0470               	iorwf	i1___lmul@multiplier,w
  5861     0E22  1D03               	skipz
  5862     0E23  2E25               	goto	u150_21
  5863     0E24  2E26               	goto	u150_20
  5864     0E25                     u150_21:
  5865     0E25  2DF1               	goto	i1l1483
  5866     0E26                     u150_20:
  5867     0E26                     i1l1491:
  5868     0E26  087C               	movf	i1___lmul@product+3,w
  5869     0E27  00F3               	movwf	?i1___lmul+3
  5870     0E28  087B               	movf	i1___lmul@product+2,w
  5871     0E29  00F2               	movwf	?i1___lmul+2
  5872     0E2A  087A               	movf	i1___lmul@product+1,w
  5873     0E2B  00F1               	movwf	?i1___lmul+1
  5874     0E2C  0879               	movf	i1___lmul@product,w
  5875     0E2D  00F0               	movwf	?i1___lmul
  5876     0E2E                     i1l289:
  5877     0E2E  0008               	return
  5878     0E2F                     __end_ofi1___lmul:
  5879                           
  5880                           	psect	text35
  5881     0F19                     __ptext35:	
  5882 ;; *************** function ___lldiv *****************
  5883 ;; Defined at:
  5884 ;;		line 5 in file "C:\Program Files\Microchip\xc8\v3.00\pic\sources\c99\common\__lldiv.c"
  5885 ;; Parameters:    Size  Location     Type
  5886 ;;  divisor         4    0[BANK0 ] unsigned long 
  5887 ;;  dividend        4    4[BANK0 ] unsigned long 
  5888 ;; Auto vars:     Size  Location     Type
  5889 ;;  quotient        4    8[BANK0 ] unsigned long 
  5890 ;;  counter         1   12[BANK0 ] unsigned char 
  5891 ;; Return value:  Size  Location     Type
  5892 ;;                  4    0[BANK0 ] unsigned long 
  5893 ;; Registers used:
  5894 ;;		wreg, status,2, status,0
  5895 ;; Tracked objects:
  5896 ;;		On entry : 0/0
  5897 ;;		On exit  : 0/0
  5898 ;;		Unchanged: 0/0
  5899 ;; Data sizes:     COMMON   BANK0   BANK1   BANK3   BANK2
  5900 ;;      Params:         0       8       0       0       0
  5901 ;;      Locals:         0       5       0       0       0
  5902 ;;      Temps:          1       0       0       0       0
  5903 ;;      Totals:         1      13       0       0       0
  5904 ;;Total ram usage:       14 bytes
  5905 ;; Hardware stack levels used: 1
  5906 ;; This function calls:
  5907 ;;		Nothing
  5908 ;; This function is called by:
  5909 ;;		_H_Bridge_PWM
  5910 ;; This function uses a non-reentrant model
  5911 ;;
  5912                           
  5913     0F19                     ___lldiv:	
  5914                           ;psect for function ___lldiv
  5915                           
  5916     0F19                     i1l1457:	
  5917                           ;incstack = 0
  5918 ;; hardware stack exceeded
  5919                           ; Regs used in ___lldiv: [wreg+status,2+status,0]
  5920                           
  5921     0F19  3000               	movlw	0
  5922     0F1A  1283               	bcf	3,5	;RP0=0, select bank0
  5923     0F1B  1303               	bcf	3,6	;RP1=0, select bank0
  5924     0F1C  00AB               	movwf	___lldiv@quotient+3
  5925     0F1D  3000               	movlw	0
  5926     0F1E  00AA               	movwf	___lldiv@quotient+2
  5927     0F1F  3000               	movlw	0
  5928     0F20  00A9               	movwf	___lldiv@quotient+1
  5929     0F21  3000               	movlw	0
  5930     0F22  00A8               	movwf	___lldiv@quotient
  5931     0F23  0823               	movf	___lldiv@divisor+3,w
  5932     0F24  0422               	iorwf	___lldiv@divisor+2,w
  5933     0F25  0421               	iorwf	___lldiv@divisor+1,w
  5934     0F26  0420               	iorwf	___lldiv@divisor,w
  5935     0F27  1903               	skipnz
  5936     0F28  2F2A               	goto	u139_21
  5937     0F29  2F2B               	goto	u139_20
  5938     0F2A                     u139_21:
  5939     0F2A  2F76               	goto	i1l1477
  5940     0F2B                     u139_20:
  5941     0F2B                     i1l1459:
  5942     0F2B  3001               	movlw	1
  5943     0F2C  00AC               	movwf	___lldiv@counter
  5944     0F2D  2F39               	goto	i1l1463
  5945     0F2E                     i1l1461:
  5946     0F2E  3001               	movlw	1
  5947     0F2F  00FD               	movwf	??___lldiv
  5948     0F30                     u140_25:
  5949     0F30  1003               	clrc
  5950     0F31  0DA0               	rlf	___lldiv@divisor,f
  5951     0F32  0DA1               	rlf	___lldiv@divisor+1,f
  5952     0F33  0DA2               	rlf	___lldiv@divisor+2,f
  5953     0F34  0DA3               	rlf	___lldiv@divisor+3,f
  5954     0F35  0BFD               	decfsz	??___lldiv,f
  5955     0F36  2F30               	goto	u140_25
  5956     0F37  3001               	movlw	1
  5957     0F38  07AC               	addwf	___lldiv@counter,f
  5958     0F39                     i1l1463:
  5959     0F39  1FA3               	btfss	___lldiv@divisor+3,7
  5960     0F3A  2F3C               	goto	u141_21
  5961     0F3B  2F3D               	goto	u141_20
  5962     0F3C                     u141_21:
  5963     0F3C  2F2E               	goto	i1l1461
  5964     0F3D                     u141_20:
  5965     0F3D                     i1l1465:
  5966     0F3D  3001               	movlw	1
  5967     0F3E  00FD               	movwf	??___lldiv
  5968     0F3F                     u142_25:
  5969     0F3F  1003               	clrc
  5970     0F40  0DA8               	rlf	___lldiv@quotient,f
  5971     0F41  0DA9               	rlf	___lldiv@quotient+1,f
  5972     0F42  0DAA               	rlf	___lldiv@quotient+2,f
  5973     0F43  0DAB               	rlf	___lldiv@quotient+3,f
  5974     0F44  0BFD               	decfsz	??___lldiv,f
  5975     0F45  2F3F               	goto	u142_25
  5976     0F46                     i1l1467:
  5977     0F46  0823               	movf	___lldiv@divisor+3,w
  5978     0F47  0227               	subwf	___lldiv@dividend+3,w
  5979     0F48  1D03               	skipz
  5980     0F49  2F54               	goto	u143_25
  5981     0F4A  0822               	movf	___lldiv@divisor+2,w
  5982     0F4B  0226               	subwf	___lldiv@dividend+2,w
  5983     0F4C  1D03               	skipz
  5984     0F4D  2F54               	goto	u143_25
  5985     0F4E  0821               	movf	___lldiv@divisor+1,w
  5986     0F4F  0225               	subwf	___lldiv@dividend+1,w
  5987     0F50  1D03               	skipz
  5988     0F51  2F54               	goto	u143_25
  5989     0F52  0820               	movf	___lldiv@divisor,w
  5990     0F53  0224               	subwf	___lldiv@dividend,w
  5991     0F54                     u143_25:
  5992     0F54  1C03               	skipc
  5993     0F55  2F57               	goto	u143_21
  5994     0F56  2F58               	goto	u143_20
  5995     0F57                     u143_21:
  5996     0F57  2F67               	goto	i1l1473
  5997     0F58                     u143_20:
  5998     0F58                     i1l1469:
  5999     0F58  0820               	movf	___lldiv@divisor,w
  6000     0F59  02A4               	subwf	___lldiv@dividend,f
  6001     0F5A  0821               	movf	___lldiv@divisor+1,w
  6002     0F5B  1C03               	skipc
  6003     0F5C  0F21               	incfsz	___lldiv@divisor+1,w
  6004     0F5D  02A5               	subwf	___lldiv@dividend+1,f
  6005     0F5E  0822               	movf	___lldiv@divisor+2,w
  6006     0F5F  1C03               	skipc
  6007     0F60  0F22               	incfsz	___lldiv@divisor+2,w
  6008     0F61  02A6               	subwf	___lldiv@dividend+2,f
  6009     0F62  0823               	movf	___lldiv@divisor+3,w
  6010     0F63  1C03               	skipc
  6011     0F64  0F23               	incfsz	___lldiv@divisor+3,w
  6012     0F65  02A7               	subwf	___lldiv@dividend+3,f
  6013     0F66                     i1l1471:
  6014     0F66  1428               	bsf	___lldiv@quotient,0
  6015     0F67                     i1l1473:
  6016     0F67  3001               	movlw	1
  6017     0F68                     u144_25:
  6018     0F68  1003               	clrc
  6019     0F69  0CA3               	rrf	___lldiv@divisor+3,f
  6020     0F6A  0CA2               	rrf	___lldiv@divisor+2,f
  6021     0F6B  0CA1               	rrf	___lldiv@divisor+1,f
  6022     0F6C  0CA0               	rrf	___lldiv@divisor,f
  6023     0F6D  3EFF               	addlw	-1
  6024     0F6E  1D03               	skipz
  6025     0F6F  2F68               	goto	u144_25
  6026     0F70                     i1l1475:
  6027     0F70  3001               	movlw	1
  6028     0F71  02AC               	subwf	___lldiv@counter,f
  6029     0F72  1D03               	btfss	3,2
  6030     0F73  2F75               	goto	u145_21
  6031     0F74  2F76               	goto	u145_20
  6032     0F75                     u145_21:
  6033     0F75  2F3D               	goto	i1l1465
  6034     0F76                     u145_20:
  6035     0F76                     i1l1477:
  6036     0F76  082B               	movf	___lldiv@quotient+3,w
  6037     0F77  00A3               	movwf	?___lldiv+3
  6038     0F78  082A               	movf	___lldiv@quotient+2,w
  6039     0F79  00A2               	movwf	?___lldiv+2
  6040     0F7A  0829               	movf	___lldiv@quotient+1,w
  6041     0F7B  00A1               	movwf	?___lldiv+1
  6042     0F7C  0828               	movf	___lldiv@quotient,w
  6043     0F7D  00A0               	movwf	?___lldiv
  6044     0F7E                     i1l311:
  6045     0F7E  0008               	return
  6046     0F7F                     __end_of___lldiv:
  6047                           
  6048                           	psect	text36
  6049     0C6E                     __ptext36:	
  6050 ;; *************** function _PWM_Init_H *****************
  6051 ;; Defined at:
  6052 ;;		line 206 in file "main.c"
  6053 ;; Parameters:    Size  Location     Type
  6054 ;;		None
  6055 ;; Auto vars:     Size  Location     Type
  6056 ;;		None
  6057 ;; Return value:  Size  Location     Type
  6058 ;;                  1    wreg      void 
  6059 ;; Registers used:
  6060 ;;		status,2
  6061 ;; Tracked objects:
  6062 ;;		On entry : 0/0
  6063 ;;		On exit  : 0/0
  6064 ;;		Unchanged: 0/0
  6065 ;; Data sizes:     COMMON   BANK0   BANK1   BANK3   BANK2
  6066 ;;      Params:         0       0       0       0       0
  6067 ;;      Locals:         0       0       0       0       0
  6068 ;;      Temps:          0       0       0       0       0
  6069 ;;      Totals:         0       0       0       0       0
  6070 ;;Total ram usage:        0 bytes
  6071 ;; Hardware stack levels used: 1
  6072 ;; This function calls:
  6073 ;;		Nothing
  6074 ;; This function is called by:
  6075 ;;		_Pump_on
  6076 ;; This function uses a non-reentrant model
  6077 ;;
  6078                           
  6079     0C6E                     _PWM_Init_H:	
  6080                           ;psect for function _PWM_Init_H
  6081                           
  6082     0C6E                     i1l1571:	
  6083                           ;incstack = 0
  6084                           ; Regs used in _PWM_Init_H: [status,2]
  6085                           
  6086                           
  6087                           ;main.c: 210:     CCP2CON = 0b00001100;
  6088     0C6E  300C               	movlw	12
  6089     0C6F  1283               	bcf	3,5	;RP0=0, select bank0
  6090     0C70  1303               	bcf	3,6	;RP1=0, select bank0
  6091     0C71  009D               	movwf	29	;volatile
  6092                           
  6093                           ;main.c: 214:     PR2 = 199;
  6094     0C72  30C7               	movlw	199
  6095     0C73  1683               	bsf	3,5	;RP0=1, select bank1
  6096     0C74  1303               	bcf	3,6	;RP1=0, select bank1
  6097     0C75  0092               	movwf	18	;volatile
  6098                           
  6099                           ;main.c: 216:     T2CON = 0b00000111;
  6100     0C76  3007               	movlw	7
  6101     0C77  1283               	bcf	3,5	;RP0=0, select bank0
  6102     0C78  1303               	bcf	3,6	;RP1=0, select bank0
  6103     0C79  0092               	movwf	18	;volatile
  6104     0C7A                     i1l1573:
  6105                           
  6106                           ;main.c: 218:     TMR2 = 0;
  6107     0C7A  0191               	clrf	17	;volatile
  6108     0C7B                     i1l126:
  6109     0C7B  0008               	return
  6110     0C7C                     __end_of_PWM_Init_H:
  6111     0002                     ___latbits      equ	2
  6112     007E                     btemp           set	126	;btemp
  6113     007E                     wtemp0          set	126
  6114                           
  6115                           	psect	config
  6116                           
  6117                           ;Config register CONFIG @ 0x2007
  6118                           ;	Oscillator Selection bits
  6119                           ;	FOSC = HS, HS oscillator
  6120                           ;	Watchdog Timer Enable bit
  6121                           ;	WDTE = OFF, WDT disabled
  6122                           ;	Power-up Timer Enable bit
  6123                           ;	PWRTE = OFF, PWRT disabled
  6124                           ;	Brown-out Reset Enable bit
  6125                           ;	BOREN = OFF, BOR disabled
  6126                           ;	Low-Voltage (Single-Supply) In-Circuit Serial Programming Enable bit
  6127                           ;	LVP = OFF, RB3 is digital I/O, HV on MCLR must be used for programming
  6128                           ;	Data EEPROM Memory Code Protection bit
  6129                           ;	CPD = OFF, Data EEPROM code protection off
  6130                           ;	Flash Program Memory Write Enable bits
  6131                           ;	WRT = OFF, Write protection off; all program memory may be written to by EECON control
  6132                           ;	In-Circuit Debugger Mode bit
  6133                           ;	DEBUG = 0x1, unprogrammed default
  6134                           ;	Flash Program Memory Code Protection bit
  6135                           ;	CP = OFF, Code protection off
  6136     2007                     	org	8199
  6137     2007  3F3A               	dw	16186

Data Sizes:
    Strings     0
    Constant    0
    Data        0
    BSS         5
    Persistent  0
    Stack       0

Auto Spaces:
    Space          Size  Autos    Used
    COMMON           14     14      14
    BANK0            80     55      57
    BANK1            80     27      30
    BANK3            96      0       0
    BANK2            96      0       0

Pointer List with Targets:

    None.

Critical Paths under _main in COMMON

    None.

Critical Paths under _myISR in COMMON

    i1_Set_PWM_Duty->i1___aldiv
    i1___aldiv->i1___lmul
    i1_delay_ms->i1_delay_us
    _H_Bridge_PWM->___lldiv
    ___lldiv->i1___lmul

Critical Paths under _main in BANK0

    _openDoor->_Set_PWM_Duty
    _delay_ms->_delay_us
    _closeDoor->_Set_PWM_Duty
    _Set_PWM_Duty->___aldiv
    ___aldiv->___lmul
    _adc->___lwdiv
    _Read_Ultrasonic->___fltol
    ___fltol->___fldiv
    ___fldiv->___xxtofl

Critical Paths under _myISR in BANK0

    _myISR->_isr
    i1_openDoor->i1_Set_PWM_Duty
    i1_closeDoor->i1_Set_PWM_Duty
    i1_Set_PWM_Duty->i1___aldiv
    _Pump_on->_H_Bridge_PWM
    _Pump_off->_H_Bridge_PWM
    _H_Bridge_PWM->___lldiv

Critical Paths under _main in BANK1

    _main->_Read_Ultrasonic
    _openDoor->_Set_PWM_Duty
    _closeDoor->_Set_PWM_Duty
    _Read_Ultrasonic->___fltol
    ___fltol->___fldiv

Critical Paths under _myISR in BANK1

    None.

Critical Paths under _main in BANK3

    None.

Critical Paths under _myISR in BANK3

    None.

Critical Paths under _main in BANK2

    None.

Critical Paths under _myISR in BANK2

    None.

Call Graph Tables:

 ---------------------------------------------------------------------------------
 (Depth) Function   	        Calls       Base Space   Used Autos Params    Refs
 ---------------------------------------------------------------------------------
 (0) _main                                                 2     2      0    4067
                                             25 BANK1      2     2      0
                            _Fan_off
                             _Fan_on
                 _Initialize_Hbridge
                         _PWM_Init_S
                    _Read_Ultrasonic
                    _Ultrasonic_Init
                                _adc
                          _closeDoor
                           _delay_ms
                     _init_interrupt
                           _openDoor
 ---------------------------------------------------------------------------------
 (1) _openDoor                                             0     0      0     837
                       _Set_PWM_Duty
 ---------------------------------------------------------------------------------
 (1) _init_interrupt                                       0     0      0       0
 ---------------------------------------------------------------------------------
 (1) _delay_ms                                             6     4      2     100
                                             27 BANK0      4     2      2
                           _delay_us
 ---------------------------------------------------------------------------------
 (1) _closeDoor                                            0     0      0     837
                       _Set_PWM_Duty
 ---------------------------------------------------------------------------------
 (2) _Set_PWM_Duty                                         6     4      2     837
                                             51 BANK0      4     2      2
                                              0 BANK1      2     2      0
                            ___aldiv
                             ___lmul
                             ___wmul
 ---------------------------------------------------------------------------------
 (3) ___wmul                                               6     2      4     142
                                             23 BANK0      6     2      4
 ---------------------------------------------------------------------------------
 (3) ___lmul                                              13     5      8     142
                                             23 BANK0     13     5      8
 ---------------------------------------------------------------------------------
 (3) ___aldiv                                             15     7      8     451
                                             36 BANK0     15     7      8
                             ___lmul (ARG)
                             ___wmul (ARG)
 ---------------------------------------------------------------------------------
 (1) _adc                                                  4     2      2     210
                                             30 BANK0      4     2      2
                            ___lwdiv
 ---------------------------------------------------------------------------------
 (2) ___lwdiv                                              7     3      4     164
                                             23 BANK0      7     3      4
 ---------------------------------------------------------------------------------
 (1) _Ultrasonic_Init                                      0     0      0       0
 ---------------------------------------------------------------------------------
 (1) _Read_Ultrasonic                                      6     4      2    2018
                                             19 BANK1      6     4      2
                            ___fldiv
                            ___fltol
                           ___xxtofl
                           _delay_us
 ---------------------------------------------------------------------------------
 (2) _delay_us                                             4     2      2      50
                                             23 BANK0      4     2      2
 ---------------------------------------------------------------------------------
 (2) ___xxtofl                                            14    10      4     337
                                             23 BANK0     14    10      4
 ---------------------------------------------------------------------------------
 (2) ___fltol                                             10     6      4     340
                                             50 BANK0      4     0      4
                                             13 BANK1      6     6      0
                            ___fldiv (ARG)
                           ___xxtofl (ARG)
 ---------------------------------------------------------------------------------
 (2) ___fldiv                                             26    18      8    1124
                                             37 BANK0     13     5      8
                                              0 BANK1     13    13      0
                           ___xxtofl (ARG)
 ---------------------------------------------------------------------------------
 (1) _PWM_Init_S                                           0     0      0       0
 ---------------------------------------------------------------------------------
 (1) _Initialize_Hbridge                                   0     0      0       0
 ---------------------------------------------------------------------------------
 (1) _Fan_on                                               0     0      0       0
 ---------------------------------------------------------------------------------
 (1) _Fan_off                                              0     0      0       0
 ---------------------------------------------------------------------------------
 Estimated maximum stack depth 3
 ---------------------------------------------------------------------------------
 (Depth) Function   	        Calls       Base Space   Used Autos Params    Refs
 ---------------------------------------------------------------------------------
 (4) _myISR                                                2     2      0    2359
                                             21 BANK0      2     2      0
                                _isr
 ---------------------------------------------------------------------------------
 (5) _isr                                                  1     1      0    2359
                                             20 BANK0      1     1      0
                           _Pump_off
                            _Pump_on
                        i1_closeDoor
                         i1_delay_ms
                         i1_openDoor
 ---------------------------------------------------------------------------------
 (6) i1_openDoor                                           0     0      0     561
                     i1_Set_PWM_Duty
 ---------------------------------------------------------------------------------
 (6) i1_closeDoor                                          0     0      0     561
                     i1_Set_PWM_Duty
 ---------------------------------------------------------------------------------
 (7) i1_Set_PWM_Duty                                       6     4      2     561
                                             14 BANK0      6     4      2
                          i1___aldiv
                           i1___lmul
                           i1___wmul
 ---------------------------------------------------------------------------------
 (8) i1___wmul                                             6     2      4      94
                                              0 COMMON     6     2      4
 ---------------------------------------------------------------------------------
 (8) i1___aldiv                                           15     7      8     302
                                             13 COMMON     1     1      0
                                              0 BANK0     14     6      8
                           i1___lmul (ARG)
                           i1___wmul (ARG)
 ---------------------------------------------------------------------------------
 (6) _Pump_on                                              0     0      0     761
                       _H_Bridge_PWM
                         _PWM_Init_H
                           _Pump_off
                         i1_delay_ms
 ---------------------------------------------------------------------------------
 (6) i1_delay_ms                                           6     4      2      99
                                              4 COMMON     4     2      2
                         i1_delay_us
 ---------------------------------------------------------------------------------
 (7) i1_delay_us                                           4     2      2      47
                                              0 COMMON     4     2      2
 ---------------------------------------------------------------------------------
 (7) _Pump_off                                             0     0      0     331
                       _H_Bridge_PWM
                       i1_PWM_Init_S
 ---------------------------------------------------------------------------------
 (8) i1_PWM_Init_S                                         0     0      0       0
 ---------------------------------------------------------------------------------
 (8) _H_Bridge_PWM                                         6     4      2     331
                                             13 BANK0      6     4      2
                            ___lldiv
                           i1___lmul
 ---------------------------------------------------------------------------------
 (8) i1___lmul                                            13     5      8      96
                                              0 COMMON    13     5      8
 ---------------------------------------------------------------------------------
 (9) ___lldiv                                             14     6      8     164
                                             13 COMMON     1     1      0
                                              0 BANK0     13     5      8
                           i1___lmul (ARG)
 ---------------------------------------------------------------------------------
 (7) _PWM_Init_H                                           0     0      0       0
 ---------------------------------------------------------------------------------
 Estimated maximum stack depth 9
 ---------------------------------------------------------------------------------

 Call Graph Graphs:

 _main (ROOT)
   _Fan_off
   _Fan_on
   _Initialize_Hbridge
   _PWM_Init_S
   _Read_Ultrasonic
     ___fldiv
       ___xxtofl (ARG)
     ___fltol
       ___fldiv (ARG)
       ___xxtofl (ARG)
     ___xxtofl
     _delay_us
   _Ultrasonic_Init
   _adc
     ___lwdiv
   _closeDoor
     _Set_PWM_Duty
       ___aldiv
         ___lmul (ARG)
         ___wmul (ARG)
       ___lmul
       ___wmul
   _delay_ms
     _delay_us
   _init_interrupt
   _openDoor
     _Set_PWM_Duty

 _myISR (ROOT)
   _isr
     _Pump_off
       _H_Bridge_PWM
         ___lldiv
           i1___lmul (ARG)
         i1___lmul
       i1_PWM_Init_S
     _Pump_on
       _H_Bridge_PWM
       _PWM_Init_H
       _Pump_off
       i1_delay_ms
         i1_delay_us
     i1_closeDoor
       i1_Set_PWM_Duty
         i1___aldiv
           i1___lmul (ARG)
           i1___wmul (ARG)
         i1___lmul
         i1___wmul
     i1_delay_ms
     i1_openDoor
       i1_Set_PWM_Duty

Address spaces:
Name               Size   Autos  Total    Usage
BITCOMMON           14      0       0      0.0%
BITBANK0            80      0       0      0.0%
BITBANK1            80      0       0      0.0%
BITBANK3            96      0       0      0.0%
BITBANK2            96      0       0      0.0%
COMMON              14     14      14    100.0%
BANK0               80     55      57     71.2%
BANK1               80     27      30     37.5%
BANK3               96      0       0      0.0%
BANK2               96      0       0      0.0%
STACK                0      0       0      0.0%
DATA                 0      0     101      0.0%


Microchip Technology PIC Macro Assembler V3.00 build 20241204225717 
Symbol Table                                                                                   Tue May 27 21:04:34 2025

              ___fldiv@aexp 00AC                ___fldiv@bexp 00AB                ___fldiv@sign 00A4  
          ??_init_interrupt 0037                          l80 02E8                          l82 0325  
                        l87 0395                          l79 02E9                          l96 0C31  
                _PWM_Init_H 0C6E                  _PWM_Init_S 0C56         ___wmul@multiplicand 0039  
          i1___wmul@product 0074                         l123 0C61                         l132 0FFF  
                       l141 0C26                         l150 045B                         l135 07FF  
                       l138 0C6D                         l171 0C15                         l340 05CF  
                       l174 0D7D                         l350 0653                         l159 0C1A  
                       l183 0CFB                         l168 0C20                         l177 0DA4  
                       l186 0CB3                         l187 0CA9                         l275 0D2F  
                       l189 0CBD                         l277 0D47                         l632 0095  
                       l289 0E76                         l634 02A2                         l730 04E7  
                       l722 04BF                         l555 0DE8                         l476 076D  
                       l716 0480                         l469 0784                         l717 0491  
                       l654 0282                         l718 0511                         l479 0784  
                       l656 0292                         l648 0202                         l729 04DB  
                       _PR2 0092                  i1_delay_ms 0CBE                  i1_delay_us 0C8E  
                       _adc 0D75                         _isr 0512                         _tmp 00BB  
            i1___aldiv@sign 0029                ___fltol@exp1 00B2                        ?_adc 003E  
                      l2201 0E54                        l2211 05BE                        l2203 0E5D  
                      l2301 03A1                        l2221 05E8                        l2213 05C2  
                      l2205 0E6E                        l2311 03C3                        l2303 03A4  
                      l2231 060B                        l2223 05F0                        l2215 05D3  
                      l2321 03E5                        l2313 03D3                        l2305 03AD  
                      l2233 061D                        l2225 05F3                        l2241 063B  
                      l2217 05DE                        l2209 05BB                        l2401 0386  
                      l2323 03F0                        l2315 03DB                        l2307 03B2  
                      l2243 0640                        l2235 062B                        l2227 05FE  
                      l2219 05E0                        l2251 0FDB                        l2403 038B  
                      l2325 03F8                        l2309 03BD                        l2245 064B  
                      l2237 062C                        l2229 0602                        l2181 0D21  
                      l2253 0FED                        l2405 038F                        l2341 02AD  
                      l2271 0737                        l2263 0705                        l2335 0417  
                      l2327 03FE                        l2319 03E0                        l2239 0635  
                      l2191 0D43                        l2183 0D25                        l2255 0FEF  
                      l2407 0393                        l2351 02C4                        l2343 02B2  
                      l1801 00AF                        l2273 073B                        l2281 0757  
                      l2265 0728                        l2257 06ED                        l2329 040E  
                      l2185 0D29                        l2249 0F7F                        l2361 02D5  
                      l2353 02C7                        l2345 02B7                        l1811 00CA  
                      l2291 0777                        l2267 072B                        l2259 06FA  
                      l1731 0DA9                        l2195 0E2F                        l2187 0D36  
                      l2371 02FF                        l2363 02DA                        l2355 02CA  
                      l2347 02BC                        l2339 02A3                        l1821 0116  
                      l1813 00E8                        l1805 00B8                        l2269 0733  
                      l1901 0464                        l1741 0DBF                        l1733 0DAF  
                      l2197 0E39                        l2189 0D3D                        l2293 07F4  
                      l2373 0304                        l2365 02DF                        l2357 02CD  
                      l2349 02C1                        l1823 011B                        l1831 014A  
                      l1815 0100                        l1807 00BF                        l2287 075E  
                      l2279 0743                        l1911 0494                        l1903 0468  
                      l1743 0DD0                        l1735 0DB2                        l1751 0DE4  
                      l2199 0E3D                        l2295 0C62                        l2391 035F  
                      l2383 0340                        l2375 0312                        l2367 02E2  
                      l2359 02D0                        l1841 019C                        l1833 016B  
                      l1825 0133                        l1817 010A                        l1761 002E  
                      l2289 0772                        l1921 04C6                        l1913 049F  
                      l1905 0478                        l2297 0399                        l1745 0DD6  
                      l1737 0DB9                        l1729 0DA5                        l2393 0367  
                      l2385 0349                        l2377 031B                        l2369 02EF  
                      l1851 01B8                        l1843 01A4                        l1835 016C  
                      l1827 0139                        l1819 0114                        l1771 004D  
                      l1763 0034                        l1755 001E                        l1931 04FF  
                      l1923 04D1                        l1915 04A6                        l1907 0488  
                      l1691 0CAB                        l2299 039F                        l1747 0DD7  
                      l1739 0DBB                        l2395 0370                        l2387 034F  
                      l2379 0336                        l1861 01DB                        l1853 01C6  
                      l1845 01A6                        l1837 0194                        l1829 013C  
                      l1781 0068                        l1773 004F                        l1765 0037  
                      l1757 0024                        l1933 0504                        l1925 04D5  
                      l1917 04A8                        l1749 0DDE                        l2397 0375  
                      l2389 0354                        l1951 0C56                        l1871 021E  
                      l1863 01FD                        l1847 01AF                        l1855 01CE  
                      l1839 0196                        l1791 0087                        l1783 006E  
                      l1767 003E                        l1775 0051                        l1759 0026  
                      l1935 0508                        l1927 04DF                        l1919 04B6  
                      l2399 037D                        l1953 0C60                        l1881 0262  
                      l1873 0222                        l1857 01D4                        l1849 01B5  
                      l1793 0089                        l1785 0071                        l1777 005B  
                      l1769 0043                        l1937 0509                        l1929 04E9  
                      l1689 0CA4                        l1945 0C21                        l1961 0CE0  
                      l1891 028A                        l1883 0271                        l1875 023B  
                      l1867 0207                        l1859 01D7                        l1787 0078  
                      l1795 008B                        l1779 0060                        l1947 0C25  
                      l1963 0CE9                        l1971 0C2E                        l1949 0C16  
                      l1893 028E                        l1885 0275                        l1869 020E  
                      l1877 0243                        l1797 009D                        l1789 007D  
                      l1973 0D75                        l1965 0CF1                        l1983 0C1B  
                      l1887 027F                        l1879 0252                        l1799 00A9  
                      l1975 0D81                        l1959 0CDB                        l1967 0C27  
                      l1985 0C1F                        l1889 0286                        l1977 0D89  
                      l1969 0C2A                        l1987 0C11                        l1899 045F  
                      l1979 0DA0                        ?_isr 0070                        u2000 0DAF  
                      u2001 0DAE                        u2100 006E                        u2020 0DBF  
                      u2101 006D                        u2021 0DBE                        u2110 0078  
                      u2111 0077                        u2015 0DB3                        u2200 016B  
                      u2120 007D                        u3000 073B                        u2040 0DD0  
                      u2201 016A                        u2121 007C                        u3001 073A  
                      u2041 0DCF                        u2210 0190                        u2130 009D  
                      u3010 0742                        u2131 009C                        u3011 0741  
                      u2035 0DC0                        u2300 0206                        u2220 019C  
                      u2140 00BF                        u3100 03DB                        u2060 0DE4  
                      u2301 0205                        u2221 019B                        u2205 0167  
                      u2141 00BE                        u3101 03DA                        u2061 0DE3  
                      u2045 0DCC                        u2310 020E                        u2230 01A4  
                      u2150 011B                        u2070 0034                        u3030 0756  
                      u3110 03FE                        u2311 020D                        u2231 01A3  
                      u2215 0179                        u2151 011A                        u2071 0033  
                      u3031 0755                        u3111 03FD                        u2055 0DD8  
                      u2320 0222                        u2216 017C                        u2080 003E  
                      u3040 075D                        u3120 040E                        u2321 0221  
                      u2217 0183                        u2081 003D                        u3041 075C  
                      u3025 0744                        u3121 040D                        u2330 0231  
                      u2250 01B5                        u2218 0186                        u2090 0043  
                      u2410 04A5                        u3130 0416                        u2251 01B4  
                      u2219 018D                        u2091 0042                        u2411 04A4  
                      u3131 0415                        u2340 0252                        u2180 0139  
                      u3060 0772                        u2500 0508                        u3140 02EF  
                      u2341 0251                        u2245 01A8                        u2181 0138  
                      u2165 011F                        u3061 0771                        u2501 0507  
                      u2405 0497                        u3141 02EE                        u2350 0271  
                      u2270 01D4                        u3070 0777                        u2430 04C5  
                      u2510 0CFB                        u3150 033F                        u2351 0270  
                      u2335 022C                        u2271 01D3                        u2175 012C  
                      u3071 0776                        u3055 0760                        u2431 04C4  
                      u2511 0CFA                        u3151 033E                        u2360 028A  
                      u2280 01DB                        u3080 03C3                        u2520 0D81  
                      u3160 0349                        u2361 0289                        u2345 024E  
                      u2281 01DA                        u2265 01BB                        u2425 04B7  
                      u3081 03C2                        u2521 0D80                        u3161 0348  
                      u2290 01FD                        u2450 04D5                        u2370 0464  
                      u3090 03D3                        u3170 0367                        u2355 026D  
                      u2291 01FC                        u2195 013F                        u2451 04D4  
                      u2371 0463                        u3091 03D2                        u2515 0CF7  
                      u3171 0366                        u2460 04DB                        u2380 0468  
                      u3180 0370                        u2461 04DA                        u2445 04CA  
                      u2381 0467                        u3181 036F                        u2470 04DF  
                      u2390 0488                        u3190 0375                        u2471 04DE  
                      u2391 0487                        u3191 0374                        u2480 04F4  
                      u2490 0504                        u2810 0D43                        u2491 0503  
                      u2811 0D42                        u2820 0E3D                        u2485 04EF  
                      u2821 0E3C                        u2805 0D37                        u2910 0602  
                      u2911 0601                        u2831 0E46                        u2832 0E4D  
                      u2905 05F5                        u2833 0E54                        u1890 0CBD  
                      u2930 061D                        u1891 0CBC                        u2931 061C  
                      u2860 0E6E                        u2780 0D29                        u2925 0604  
                      u2861 0E6D                        u2845 0E56                        u2781 0D28  
                      u2950 063B                        u2870 05C2                        u1895 0CB9  
                      u2951 063A                        u2935 0619                        u2871 05C1  
                      u2855 0E5E                        u2960 0640                        u2880 05D3  
                      u2961 063F                        u2945 062D                        u2881 05D2  
                      u2890 05F0                        u2891 05EF                        u2795 0D30  
                      u2980 06FA                        u2981 06F9                        u2990 0723  
                      u2975 0FF7                        u2995 071E                        _TMR0 0001  
                      _TMR2 0011                        _cntr 0057                        _main 02A3  
                i1_openDoor 0C4A                        btemp 007E                        start 000E  
           ___fldiv@new_exp 00A5             __end_of_Fan_off 0C16                 i1_closeDoor 0C3E  
                     ??_adc 0040                       ??_isr 007E             __end_of_Pump_on 0F19  
             ___fltol@sign1 00B1             __end_of___aldiv 0654                       ?_main 0070  
           __end_of___fldiv 02A3             __end_of___fltol 0785             __end_of___lldiv 0F7F  
__end_of_Initialize_Hbridge 0C1B                       _T2CON 0012             __end_of___lwdiv 0DE9  
                     i1l100 053B                       i1l101 053A                       i1l103 05BA  
                     i1l120 0D6C                       i1l123 0C3D                       i1l132 07F3  
                     i1l126 0C7B                       i1l311 0F7E                       i1l135 0C55  
                     i1l129 0EC3                       i1l162 0F18                       i1l138 0C49  
                     i1l340 0668                       i1l165 0C8D                       i1l350 06EC  
                     i1l183 0CDA                       i1l186 0C99                       i1l187 0C91  
                     i1l275 0D08                       i1l189 0CA3                       i1l277 0D20  
                     i1l289 0E2E                       _PORTB 0006                       _PORTC 0007  
                     _PORTD 0008                       _TRISB 0086                       _TRISC 0087  
                     _TRISD 0088         ___lmul@multiplicand 003B                       _myISR 0D48  
               i1delay_ms@i 0076                 i1delay_ms@x 0074                 i1delay_us@i 0072  
         ??_Ultrasonic_Init 0037                 i1delay_us@x 0070            __end_ofi1___lmul 0E2F  
                     pclath 000A            __end_ofi1___wmul 0D21                       status 0003  
       i1___wmul@multiplier 0070                       wtemp0 007E             __initialization 0011  
              __end_of_main 0399            ??i1_Set_PWM_Duty 0030         i1___lmul@multiplier 0070  
               ?_PWM_Init_H 0070                 ?_PWM_Init_S 0070            Set_PWM_Duty@duty 00A0  
                    ??_main 0057                 ?i1_delay_ms 0074                 ?i1_delay_us 0070  
          __end_of_Pump_off 0C8E                      _ADCON0 001F                      _ADCON1 009F  
                    ?_myISR 0070                      _ADRESH 001E                      _ADRESL 009E  
                    _CCPR1L 0015                      _CCPR2L 001B                      i1l2031 0512  
                    i1l2041 0541                      i1l2033 0517                      i1l2051 0551  
                    i1l2035 0520                      i1l1501 0EB7                      i1l2061 0568  
                    i1l2053 0555                      i1l2045 0547                      i1l2037 052E  
                    i1l1503 0C32                      i1l1511 0CFC                      i1l2071 058A  
                    i1l2063 056F                      i1l2055 0558                      i1l2047 0548  
                    i1l2039 0534                      i1l1505 0C3C                      i1l1521 0D1C  
                    i1l1513 0CFE                      i1l2081 05A1                      i1l2065 0575  
                    i1l2073 058E                      i1l2057 055F                      i1l2049 054C  
                    i1l1507 0C8E                      i1l1531 066C                      i1l1515 0D02  
                    i1l2083 05A6                      i1l2075 0595                      i1l2067 057B  
                    i1l2059 0565                      i1l2171 0D5C                      i1l2163 0D48  
                    i1l1461 0F2E                      i1l1509 0C93                      i1l1541 068C  
                    i1l1533 0677                      i1l1525 0654                      i1l1517 0D0F  
                    i1l2085 05AD                      i1l2077 059A                      i1l2069 0580  
                    i1l2173 0D5F                      i1l2165 0D4C                      i1l1471 0F66  
                    i1l1463 0F39                      i1l1551 06C4                      i1l1543 0697  
                    i1l1535 0679                      i1l1527 0657                      i1l1519 0D16  
                    i1l2087 05B2                      i1l2079 059F                      i1l2175 0D61  
                    i1l2167 0D4D                      i1l1473 0F67                      i1l1465 0F3D  
                    i1l1457 0F19                      i1l1481 0DE9                      i1l1561 06E4  
                    i1l1553 06C5                      i1l1545 069B                      i1l1537 0681  
                    i1l1529 065B                      i1l2089 05B5                      i1l2177 0D66  
                    i1l2169 0D53                      i1l1571 0C6E                      i1l1475 0F70  
                    i1l1467 0F46                      i1l1459 0F2B                      i1l1491 0E26  
                    i1l1483 0DF1                      i1l1651 0CBE                      i1l1555 06CE  
                    i1l1547 06A4                      i1l1539 0689                      i1l1643 0785  
                    i1l2179 0D69                      i1l1573 0C7A                      i1l1469 0F58  
                    i1l1477 0F76                      i1l1485 0DF5                      i1l1565 0C7C  
                    i1l1653 0CC1                      i1l1661 0EC7                      i1l1549 06B6  
                    i1l1557 06D4                      i1l1645 07D9                      i1l1487 0E0C  
                    i1l1495 0E77                      i1l1567 0C80                      i1l1655 0CCA  
                    i1l1671 0EEB                      i1l1663 0EC9                      i1l1559 06D9  
                    i1l1647 07E5                      i1l1489 0E15                      i1l1497 0EA9  
                    i1l1569 0C88                      i1l1657 0CD0                      i1l1673 0EF6  
                    i1l1665 0ECE                      i1l1649 07E7                      i1l1499 0EB5  
                    i1l1675 0EFF                      i1l1667 0ED7                      i1l1659 0EC4  
                    i1l1677 0F0A                      i1l1669 0EE2                      i1l1941 0C4A  
                    i1l1679 0F13                      i1l1943 0C3E                      u140_25 0F30  
                    u141_20 0F3D                      u141_21 0F3C                      u150_20 0E26  
                    u150_21 0E25                      u142_25 0F3F                      u143_20 0F58  
                    u143_21 0F57                      u143_25 0F54                      u151_25 0EBB  
                    u152_20 0CA3                      u152_21 0CA2                      u144_25 0F68  
                    u152_25 0C9F                      u160_25 068E                      u145_20 0F76  
                    u161_20 069B                      u153_20 0D02                      _INTCON 000B  
                    u145_21 0F75                      u161_21 069A                      u153_21 0D01  
                    u146_20 0DF5                      u146_21 0DF4                      u162_25 069D  
                    u154_25 0D09                      u139_20 0F2B                      u163_20 06B6  
                    u139_21 0F2A                      u147_21 0DFE                      u163_21 06B5  
                    u147_22 0E05                      u147_23 0E0C                      u163_25 06B2  
                    u155_25 0D10                      u156_20 0D1C                      u260_20 0541  
                    u156_21 0D1B                      u260_21 0540                      u148_25 0E0E  
                    u164_25 06C6                      u165_20 06D4                      u157_20 065B  
                    u261_20 0551                      u165_21 06D3                      u157_21 065A  
                    u261_21 0550                      u149_25 0E16                      u166_20 06D9  
                    u158_20 066C                      u262_20 055F                      u166_21 06D8  
                    u158_21 066B                      u262_21 055E                      u159_20 0689  
                    u263_20 0565                      u159_21 0688                      u263_21 0564  
                    u264_20 056F                      u264_21 056E                      u265_20 0575  
                    u265_21 0574                   ??_Fan_off 0037                      u266_20 0595  
                    u266_21 0594                      u186_25 07EB                      u187_20 0CDA  
                    u267_20 059F                      u259_20 0534                      u187_21 0CD9  
                    u267_21 059E                      u259_21 0533                      u187_25 0CD6  
                    u268_20 05A6                      u276_20 0D4C                      u268_21 05A5  
                    u276_21 0D4B                      u269_20 05AD                      u277_20 0D5C  
                    u269_21 05AC                      u277_21 0D5B                 ?i1_openDoor 0070  
          __end_of___xxtofl 0512                      _Fan_on 0C1B         Set_PWM_Duty@duty_us 0053  
          __end_of_delay_ms 0CFC            __end_of_delay_us 0CBE                   ??_Pump_on 007E  
                    ___lmul 0E2F                   ??___aldiv 004C                      ___wmul 0D21  
                 ??___fldiv 004D                   ??___fltol 00AD                   ??___lldiv 007D  
                 ??___lwdiv 003B               ?_Set_PWM_Duty 0053            __end_of_openDoor 0800  
         __end_ofi1___aldiv 06ED         Read_Ultrasonic@time 00B5                      saved_w 007E  
              ___xxtofl@arg 0041                ___xxtofl@exp 0040                ___xxtofl@val 0037  
   __end_of__initialization 001A                  ___fltol@f1 0052              __pcstackCOMMON 0070  
             __end_of_myISR 0D75              ??_Set_PWM_Duty 0055                   ?i1___lmul 0070  
                 ?i1___wmul 0070                     ??_myISR 0035           i1___aldiv@divisor 0020  
         i1___aldiv@counter 0028                  __pbssBANK0 0057                  __pbssBANK1 00BB  
             ?i1_PWM_Init_S 0070           ??_Read_Ultrasonic 0056                     ?_Fan_on 0070  
              ?i1_closeDoor 0070          i1Set_PWM_Duty@duty 0032                  __pmaintext 02A3  
                   ?___lmul 0037                     ?___wmul 0037                   ?_Pump_off 0070  
                __pintentry 0004                     _CCP1CON 0017                     _CCP2CON 001D  
            ___lmul@product 0040             _Ultrasonic_Init 0C21    H_Bridge_PWM@duty_percent 002D  
                ??i1___lmul 0078                  ??i1___wmul 0074                   ?___xxtofl 0037  
                 ?_delay_ms 003B                   ?_delay_us 0037              ??i1_PWM_Init_S 0070  
        _Initialize_Hbridge 0C16                     _Fan_off 0C11                   ?_openDoor 0070  
       ?_Initialize_Hbridge 0070           __end_of_closeDoor 0C6E                     _Pump_on 0EC4  
                   ___aldiv 05BB                     ___fldiv 001E                     ___fltol 06ED  
                   ___lldiv 0F19                  ??_Pump_off 007E                     ___lwdiv 0DA5  
              ??_PWM_Init_H 0070                ??_PWM_Init_S 0037                     __ptext1 07F4  
                   __ptext2 0C27                     __ptext3 0CDB                     __ptext4 0C62  
                   __ptext5 0F7F                     __ptext6 0D21                     __ptext7 0E2F  
                   __ptext8 05BB                     __ptext9 0D75                ??i1_delay_ms 0076  
              ??i1_delay_us 0072                  ??___xxtofl 003B        ??_Initialize_Hbridge 0037  
          ___aldiv@dividend 0048                  ??_delay_ms 003D                  ??_delay_us 0039  
                   main@lev 00B9        end_of_initialization 001A        __end_of_Set_PWM_Duty 1000  
              ??i1_openDoor 007E          __end_of_PWM_Init_H 0C7C          __end_of_PWM_Init_S 0C62  
                ??_openDoor 0057             ___lldiv@divisor 0020             ___lldiv@counter 002C  
        __end_ofi1_delay_ms 0CDB          __end_ofi1_delay_us 0CA4     __end_of_Ultrasonic_Init 0C27  
          ___aldiv@quotient 004F       i1___wmul@multiplicand 0072               ?_H_Bridge_PWM 002D  
                _water_flag 00BD          __end_ofi1_openDoor 0C56               ___xxtofl@sign 003F  
                 i1___aldiv 0654                 ___fldiv@grs 00A7                 ___fldiv@rem 00A0  
            __end_of_Fan_on 0C21              __end_of___lmul 0E77        __end_ofi1_PWM_Init_S 0C3E  
            __end_of___wmul 0D48              ??_H_Bridge_PWM 002F             _Read_Ultrasonic 0399  
     i1___lmul@multiplicand 0074         start_initialization 0011                  ?i1___aldiv 0020  
               __end_of_adc 0DA5                 __end_of_isr 05BB                    ??_Fan_on 0037  
          ?_Ultrasonic_Init 0070                    ??___lmul 003F                    ??___wmul 003B  
        i1___aldiv@dividend 0024            H_Bridge_PWM@duty 0031                   ___fldiv@a 0045  
                 ___fldiv@b 0049                   adc@adcval 0040                   ___latbits 0002  
             __pcstackBANK0 0020               __pcstackBANK1 00A0              _init_interrupt 0C27  
          i1___lmul@product 0079                    ?_Fan_off 0070          i1___aldiv@quotient 002A  
     i1Set_PWM_Duty@duty_us 002E            ___lwdiv@dividend 0039                    ?_Pump_on 0070  
                  ?___aldiv 0044                    ?___fldiv 0045                    ?___fltol 0052  
                  ?___lldiv 0020                    ?___lwdiv 0037     __end_of_Read_Ultrasonic 045C  
                 _closeDoor 0C62                _Set_PWM_Duty 0F7F      __end_of_init_interrupt 0C32  
               ??i1___aldiv 007D            ___lwdiv@quotient 003B             ___aldiv@divisor 0044  
      __end_of_H_Bridge_PWM 0EC4           interrupt_function 0004             ___aldiv@counter 004D  
            ___wmul@product 003B                   delay_ms@i 003D                   delay_ms@x 003B  
                 delay_us@i 0039                   delay_us@x 0037                  ?_closeDoor 0070  
                  i1___lmul 0DE9           ___wmul@multiplier 0037                    i1___wmul 0CFC  
           ?_init_interrupt 0070              i1_Set_PWM_Duty 0785           ___lmul@multiplier 0037  
              i1_PWM_Init_S 0C32               isr@pill_taken 0034      Read_Ultrasonic@timeout 00B7  
                  _Pump_off 0C7C            ?_Read_Ultrasonic 00B3      __end_ofi1_Set_PWM_Duty 07F4  
                  ___xxtofl 045C                    _delay_ms 0CDB                    _delay_us 0CA4  
           ___lwdiv@divisor 0037             ___lwdiv@counter 003D                    __ptext10 0DA5  
                  __ptext11 0C21                    __ptext20 0C11                    __ptext12 0399  
                  __ptext21 0D48                    __ptext13 0CA4                    __ptext30 0C8E  
                  __ptext22 0512                    __ptext14 045C                    __ptext31 0C7C  
                  __ptext23 0C4A                    __ptext15 06ED                    __ptext32 0C32  
                  __ptext24 0C3E                    __ptext16 001E                    __ptext33 0E77  
                  __ptext25 0785                    __ptext17 0C56                    __ptext34 0DE9  
                  __ptext26 0CFC                    __ptext18 0C16                    __ptext35 0F19  
                  __ptext27 0654                    __ptext19 0C1B                    __ptext36 0C6E  
                  __ptext28 0EC4                    __ptext29 0CBE                    _openDoor 07F4  
             ??i1_closeDoor 007E                 ??_closeDoor 0057             ?i1_Set_PWM_Duty 002E  
                  intlevel1 0000            ___lldiv@dividend 0024         __end_ofi1_closeDoor 0C4A  
              _H_Bridge_PWM 0E77                  _OPTION_REG 0081            ___lldiv@quotient 0028  
              ___aldiv@sign 004E  
